
GUI_APP.elf:     file format elf32-littlenios2
GUI_APP.elf
architecture: nios2:r1, flags 0x00000112:
EXEC_P, HAS_SYMS, D_PAGED
start address 0x04000244

Program Header:
    LOAD off    0x00001020 vaddr 0x04000020 paddr 0x04000020 align 2**12
         filesz 0x000f2ffc memsz 0x000f315c flags rwx
    LOAD off    0x000f5000 vaddr 0x09001000 paddr 0x09001000 align 2**12
         filesz 0x00000000 memsz 0x00000000 flags r-x

Sections:
Idx Name          Size      VMA       LMA       File off  Algn
  0 .entry        00000000  09001000  09001000  000f5000  2**5
                  CONTENTS, ALLOC, LOAD, READONLY, CODE
  1 .exceptions   00000224  04000020  04000020  00001020  2**2
                  CONTENTS, ALLOC, LOAD, READONLY, CODE
  2 .text         0001f110  04000244  04000244  00001244  2**2
                  CONTENTS, ALLOC, LOAD, READONLY, CODE
  3 .rodata       00066394  0401f354  0401f354  00020354  2**2
                  CONTENTS, ALLOC, LOAD, READONLY, DATA
  4 .rwdata       0006d934  040856e8  040856e8  000866e8  2**2
                  CONTENTS, ALLOC, LOAD, DATA, SMALL_DATA
  5 .bss          00000160  040f301c  040f301c  000f401c  2**2
                  ALLOC, SMALL_DATA
  6 .sdram        00000000  040f317c  040f317c  000f5000  2**0
                  CONTENTS
  7 .epcs_flash_controller_0 00000000  09001020  09001020  000f5000  2**0
                  CONTENTS
  8 .comment      00000023  00000000  00000000  000f5000  2**0
                  CONTENTS, READONLY
  9 .debug_aranges 000014f0  00000000  00000000  000f5028  2**3
                  CONTENTS, READONLY, DEBUGGING
 10 .debug_info   00031d6e  00000000  00000000  000f6518  2**0
                  CONTENTS, READONLY, DEBUGGING
 11 .debug_abbrev 0000c6bf  00000000  00000000  00128286  2**0
                  CONTENTS, READONLY, DEBUGGING
 12 .debug_line   00010643  00000000  00000000  00134945  2**0
                  CONTENTS, READONLY, DEBUGGING
 13 .debug_frame  00003e74  00000000  00000000  00144f88  2**2
                  CONTENTS, READONLY, DEBUGGING
 14 .debug_str    00007954  00000000  00000000  00148dfc  2**0
                  CONTENTS, READONLY, DEBUGGING
 15 .debug_loc    0001ff40  00000000  00000000  00150750  2**0
                  CONTENTS, READONLY, DEBUGGING
 16 .debug_alt_sim_info 00000050  00000000  00000000  00170690  2**2
                  CONTENTS, READONLY, DEBUGGING
 17 .debug_ranges 000020a0  00000000  00000000  001706e0  2**3
                  CONTENTS, READONLY, DEBUGGING
 18 .thread_model 00000003  00000000  00000000  00179c9e  2**0
                  CONTENTS, READONLY
 19 .cpu          0000000a  00000000  00000000  00179ca1  2**0
                  CONTENTS, READONLY
 20 .qsys         00000001  00000000  00000000  00179cab  2**0
                  CONTENTS, READONLY
 21 .simulation_enabled 00000001  00000000  00000000  00179cac  2**0
                  CONTENTS, READONLY
 22 .sysid_hash   00000004  00000000  00000000  00179cad  2**0
                  CONTENTS, READONLY
 23 .sysid_base   00000004  00000000  00000000  00179cb1  2**0
                  CONTENTS, READONLY
 24 .sysid_time   00000004  00000000  00000000  00179cb5  2**0
                  CONTENTS, READONLY
 25 .stderr_dev   00000009  00000000  00000000  00179cb9  2**0
                  CONTENTS, READONLY
 26 .stdin_dev    00000009  00000000  00000000  00179cc2  2**0
                  CONTENTS, READONLY
 27 .stdout_dev   00000009  00000000  00000000  00179ccb  2**0
                  CONTENTS, READONLY
 28 .sopc_system_name 00000004  00000000  00000000  00179cd4  2**0
                  CONTENTS, READONLY
 29 .quartus_project_dir 0000004a  00000000  00000000  00179cd8  2**0
                  CONTENTS, READONLY
 30 .jdi          00003b3c  00000000  00000000  00179d22  2**0
                  CONTENTS, READONLY
 31 .sopcinfo     000af7c4  00000000  00000000  0017d85e  2**0
                  CONTENTS, READONLY
SYMBOL TABLE:
09001000 l    d  .entry	00000000 .entry
04000020 l    d  .exceptions	00000000 .exceptions
04000244 l    d  .text	00000000 .text
0401f354 l    d  .rodata	00000000 .rodata
040856e8 l    d  .rwdata	00000000 .rwdata
040f301c l    d  .bss	00000000 .bss
040f317c l    d  .sdram	00000000 .sdram
09001020 l    d  .epcs_flash_controller_0	00000000 .epcs_flash_controller_0
00000000 l    d  .comment	00000000 .comment
00000000 l    d  .debug_aranges	00000000 .debug_aranges
00000000 l    d  .debug_info	00000000 .debug_info
00000000 l    d  .debug_abbrev	00000000 .debug_abbrev
00000000 l    d  .debug_line	00000000 .debug_line
00000000 l    d  .debug_frame	00000000 .debug_frame
00000000 l    d  .debug_str	00000000 .debug_str
00000000 l    d  .debug_loc	00000000 .debug_loc
00000000 l    d  .debug_alt_sim_info	00000000 .debug_alt_sim_info
00000000 l    d  .debug_ranges	00000000 .debug_ranges
00000000 l    df *ABS*	00000000 ../GUI_APP_bsp//obj/HAL/src/crt0.o
04000288 l       .text	00000000 alt_after_alt_main
00000000 l    df *ABS*	00000000 alt_irq_handler.c
00000000 l    df *ABS*	00000000 alt_instruction_exception_entry.c
00000000 l    df *ABS*	00000000 gesture.c
00000000 l    df *ABS*	00000000 tahomabold_20.cpp
04063c44 l     O .rodata	000000b6 _ZL16tahomabold_20_33
04063cfa l     O .rodata	00000104 _ZL16tahomabold_20_34
04063dfe l     O .rodata	000001a0 _ZL16tahomabold_20_35
04063f9e l     O .rodata	00000152 _ZL16tahomabold_20_36
040640f0 l     O .rodata	00000270 _ZL16tahomabold_20_37
04064360 l     O .rodata	000001ba _ZL16tahomabold_20_38
0406451a l     O .rodata	0000009c _ZL16tahomabold_20_39
040645b6 l     O .rodata	000000ea _ZL16tahomabold_20_40
040646a0 l     O .rodata	000000ea _ZL16tahomabold_20_41
0406478a l     O .rodata	00000152 _ZL16tahomabold_20_42
040648dc l     O .rodata	000001a0 _ZL16tahomabold_20_43
04064a7c l     O .rodata	0000009c _ZL16tahomabold_20_44
04064b18 l     O .rodata	000000ea _ZL16tahomabold_20_45
04064c02 l     O .rodata	0000009c _ZL16tahomabold_20_46
04064c9e l     O .rodata	00000138 _ZL16tahomabold_20_47
04064dd6 l     O .rodata	00000152 _ZL16tahomabold_20_48
04064f28 l     O .rodata	00000152 _ZL16tahomabold_20_49
0406507a l     O .rodata	00000152 _ZL16tahomabold_20_50
040651cc l     O .rodata	00000152 _ZL16tahomabold_20_51
0406531e l     O .rodata	00000152 _ZL16tahomabold_20_52
04065470 l     O .rodata	00000152 _ZL16tahomabold_20_53
040655c2 l     O .rodata	00000152 _ZL16tahomabold_20_54
04065714 l     O .rodata	00000152 _ZL16tahomabold_20_55
04065866 l     O .rodata	00000152 _ZL16tahomabold_20_56
040659b8 l     O .rodata	00000152 _ZL16tahomabold_20_57
04065b0a l     O .rodata	000000b6 _ZL16tahomabold_20_58
04065bc0 l     O .rodata	000000b6 _ZL16tahomabold_20_59
04065c76 l     O .rodata	000001a0 _ZL16tahomabold_20_60
04065e16 l     O .rodata	000001a0 _ZL16tahomabold_20_61
04065fb6 l     O .rodata	000001a0 _ZL16tahomabold_20_62
04066156 l     O .rodata	0000011e _ZL16tahomabold_20_63
04066274 l     O .rodata	000001d4 _ZL16tahomabold_20_64
04066448 l     O .rodata	0000016c _ZL16tahomabold_20_65
040665b4 l     O .rodata	0000016c _ZL16tahomabold_20_66
04066720 l     O .rodata	00000152 _ZL16tahomabold_20_67
04066872 l     O .rodata	00000186 _ZL16tahomabold_20_68
040669f8 l     O .rodata	00000138 _ZL16tahomabold_20_69
04066b30 l     O .rodata	00000138 _ZL16tahomabold_20_70
04066c68 l     O .rodata	00000186 _ZL16tahomabold_20_71
04066dee l     O .rodata	00000186 _ZL16tahomabold_20_72
04066f74 l     O .rodata	00000104 _ZL16tahomabold_20_73
04067078 l     O .rodata	00000104 _ZL16tahomabold_20_74
0406717c l     O .rodata	0000016c _ZL16tahomabold_20_75
040672e8 l     O .rodata	0000011e _ZL16tahomabold_20_76
04067406 l     O .rodata	000001d4 _ZL16tahomabold_20_77
040675da l     O .rodata	00000186 _ZL16tahomabold_20_78
04067760 l     O .rodata	00000186 _ZL16tahomabold_20_79
040678e6 l     O .rodata	00000152 _ZL16tahomabold_20_80
04067a38 l     O .rodata	00000186 _ZL16tahomabold_20_81
04067bbe l     O .rodata	00000186 _ZL16tahomabold_20_82
04067d44 l     O .rodata	00000152 _ZL16tahomabold_20_83
04067e96 l     O .rodata	00000138 _ZL16tahomabold_20_84
04067fce l     O .rodata	00000186 _ZL16tahomabold_20_85
04068154 l     O .rodata	0000016c _ZL16tahomabold_20_86
040682c0 l     O .rodata	00000222 _ZL16tahomabold_20_87
040684e2 l     O .rodata	0000016c _ZL16tahomabold_20_88
0406864e l     O .rodata	0000016c _ZL16tahomabold_20_89
040687ba l     O .rodata	00000138 _ZL16tahomabold_20_90
040688f2 l     O .rodata	000000ea _ZL16tahomabold_20_91
040689dc l     O .rodata	00000138 _ZL16tahomabold_20_92
04068b14 l     O .rodata	000000ea _ZL16tahomabold_20_93
04068bfe l     O .rodata	000001a0 _ZL16tahomabold_20_94
04068d9e l     O .rodata	00000152 _ZL16tahomabold_20_95
04068ef0 l     O .rodata	0000011e _ZL16tahomabold_20_96
0406900e l     O .rodata	00000138 _ZL16tahomabold_20_97
04069146 l     O .rodata	00000152 _ZL16tahomabold_20_98
04069298 l     O .rodata	0000011e _ZL16tahomabold_20_99
040693b6 l     O .rodata	00000152 _ZL17tahomabold_20_100
04069508 l     O .rodata	00000138 _ZL17tahomabold_20_101
04069640 l     O .rodata	000000d0 _ZL17tahomabold_20_102
04069710 l     O .rodata	00000152 _ZL17tahomabold_20_103
04069862 l     O .rodata	00000152 _ZL17tahomabold_20_104
040699b4 l     O .rodata	0000009c _ZL17tahomabold_20_105
04069a50 l     O .rodata	000000ea _ZL17tahomabold_20_106
04069b3a l     O .rodata	00000138 _ZL17tahomabold_20_107
04069c72 l     O .rodata	0000009c _ZL17tahomabold_20_108
04069d0e l     O .rodata	000001ee _ZL17tahomabold_20_109
04069efc l     O .rodata	00000152 _ZL17tahomabold_20_110
0406a04e l     O .rodata	00000138 _ZL17tahomabold_20_111
0406a186 l     O .rodata	00000152 _ZL17tahomabold_20_112
0406a2d8 l     O .rodata	00000152 _ZL17tahomabold_20_113
0406a42a l     O .rodata	000000ea _ZL17tahomabold_20_114
0406a514 l     O .rodata	00000104 _ZL17tahomabold_20_115
0406a618 l     O .rodata	000000d0 _ZL17tahomabold_20_116
0406a6e8 l     O .rodata	00000152 _ZL17tahomabold_20_117
0406a83a l     O .rodata	00000138 _ZL17tahomabold_20_118
0406a972 l     O .rodata	000001d4 _ZL17tahomabold_20_119
0406ab46 l     O .rodata	00000138 _ZL17tahomabold_20_120
0406ac7e l     O .rodata	00000138 _ZL17tahomabold_20_121
0406adb6 l     O .rodata	0000011e _ZL17tahomabold_20_122
0406aed4 l     O .rodata	00000138 _ZL17tahomabold_20_123
0406b00c l     O .rodata	00000152 _ZL17tahomabold_20_124
0406b15e l     O .rodata	00000138 _ZL17tahomabold_20_125
0406b296 l     O .rodata	000001a0 _ZL17tahomabold_20_126
00000000 l    df *ABS*	00000000 tahomabold_32.cpp
0406b436 l     O .rodata	000001b8 _ZL16tahomabold_32_33
0406b5ee l     O .rodata	00000280 _ZL16tahomabold_32_34
0406b86e l     O .rodata	00000410 _ZL16tahomabold_32_35
0406bc7e l     O .rodata	00000320 _ZL16tahomabold_32_36
0406bf9e l     O .rodata	000005f0 _ZL16tahomabold_32_37
0406c58e l     O .rodata	00000410 _ZL16tahomabold_32_38
0406c99e l     O .rodata	00000168 _ZL16tahomabold_32_39
0406cb06 l     O .rodata	00000258 _ZL16tahomabold_32_40
0406cd5e l     O .rodata	00000258 _ZL16tahomabold_32_41
0406cfb6 l     O .rodata	00000320 _ZL16tahomabold_32_42
0406d2d6 l     O .rodata	00000410 _ZL16tahomabold_32_43
0406d6e6 l     O .rodata	00000190 _ZL16tahomabold_32_44
0406d876 l     O .rodata	00000230 _ZL16tahomabold_32_45
0406daa6 l     O .rodata	00000190 _ZL16tahomabold_32_46
0406dc36 l     O .rodata	000002d0 _ZL16tahomabold_32_47
0406df06 l     O .rodata	00000320 _ZL16tahomabold_32_48
0406e226 l     O .rodata	00000320 _ZL16tahomabold_32_49
0406e546 l     O .rodata	00000320 _ZL16tahomabold_32_50
0406e866 l     O .rodata	00000320 _ZL16tahomabold_32_51
0406eb86 l     O .rodata	00000320 _ZL16tahomabold_32_52
0406eea6 l     O .rodata	00000320 _ZL16tahomabold_32_53
0406f1c6 l     O .rodata	00000320 _ZL16tahomabold_32_54
0406f4e6 l     O .rodata	00000320 _ZL16tahomabold_32_55
0406f806 l     O .rodata	00000320 _ZL16tahomabold_32_56
0406fb26 l     O .rodata	00000320 _ZL16tahomabold_32_57
0406fe46 l     O .rodata	000001e0 _ZL16tahomabold_32_58
04070026 l     O .rodata	000001e0 _ZL16tahomabold_32_59
04070206 l     O .rodata	00000410 _ZL16tahomabold_32_60
04070616 l     O .rodata	00000410 _ZL16tahomabold_32_61
04070a26 l     O .rodata	00000410 _ZL16tahomabold_32_62
04070e36 l     O .rodata	000002d0 _ZL16tahomabold_32_63
04071106 l     O .rodata	00000488 _ZL16tahomabold_32_64
0407158e l     O .rodata	00000370 _ZL16tahomabold_32_65
040718fe l     O .rodata	00000370 _ZL16tahomabold_32_66
04071c6e l     O .rodata	00000348 _ZL16tahomabold_32_67
04071fb6 l     O .rodata	000003c0 _ZL16tahomabold_32_68
04072376 l     O .rodata	00000320 _ZL16tahomabold_32_69
04072696 l     O .rodata	000002f8 _ZL16tahomabold_32_70
0407298e l     O .rodata	000003c0 _ZL16tahomabold_32_71
04072d4e l     O .rodata	000003c0 _ZL16tahomabold_32_72
0407310e l     O .rodata	00000258 _ZL16tahomabold_32_73
04073366 l     O .rodata	00000280 _ZL16tahomabold_32_74
040735e6 l     O .rodata	00000398 _ZL16tahomabold_32_75
0407397e l     O .rodata	000002d0 _ZL16tahomabold_32_76
04073c4e l     O .rodata	00000488 _ZL16tahomabold_32_77
040740d6 l     O .rodata	000003e8 _ZL16tahomabold_32_78
040744be l     O .rodata	000003e8 _ZL16tahomabold_32_79
040748a6 l     O .rodata	00000348 _ZL16tahomabold_32_80
04074bee l     O .rodata	000003e8 _ZL16tahomabold_32_81
04074fd6 l     O .rodata	000003c0 _ZL16tahomabold_32_82
04075396 l     O .rodata	00000320 _ZL16tahomabold_32_83
040756b6 l     O .rodata	00000320 _ZL16tahomabold_32_84
040759d6 l     O .rodata	000003c0 _ZL16tahomabold_32_85
04075d96 l     O .rodata	00000370 _ZL16tahomabold_32_86
04076106 l     O .rodata	00000528 _ZL16tahomabold_32_87
0407662e l     O .rodata	00000370 _ZL16tahomabold_32_88
0407699e l     O .rodata	00000370 _ZL16tahomabold_32_89
04076d0e l     O .rodata	00000320 _ZL16tahomabold_32_90
0407702e l     O .rodata	00000258 _ZL16tahomabold_32_91
04077286 l     O .rodata	000002d0 _ZL16tahomabold_32_92
04077556 l     O .rodata	00000258 _ZL16tahomabold_32_93
040777ae l     O .rodata	00000410 _ZL16tahomabold_32_94
04077bbe l     O .rodata	00000320 _ZL16tahomabold_32_95
04077ede l     O .rodata	000002a8 _ZL16tahomabold_32_96
04078186 l     O .rodata	000002f8 _ZL16tahomabold_32_97
0407847e l     O .rodata	00000320 _ZL16tahomabold_32_98
0407879e l     O .rodata	000002a8 _ZL16tahomabold_32_99
04078a46 l     O .rodata	00000320 _ZL17tahomabold_32_100
04078d66 l     O .rodata	000002f8 _ZL17tahomabold_32_101
0407905e l     O .rodata	00000230 _ZL17tahomabold_32_102
0407928e l     O .rodata	00000320 _ZL17tahomabold_32_103
040795ae l     O .rodata	00000320 _ZL17tahomabold_32_104
040798ce l     O .rodata	00000190 _ZL17tahomabold_32_105
04079a5e l     O .rodata	00000208 _ZL17tahomabold_32_106
04079c66 l     O .rodata	000002f8 _ZL17tahomabold_32_107
04079f5e l     O .rodata	00000190 _ZL17tahomabold_32_108
0407a0ee l     O .rodata	000004d8 _ZL17tahomabold_32_109
0407a5c6 l     O .rodata	00000320 _ZL17tahomabold_32_110
0407a8e6 l     O .rodata	00000320 _ZL17tahomabold_32_111
0407ac06 l     O .rodata	00000320 _ZL17tahomabold_32_112
0407af26 l     O .rodata	00000320 _ZL17tahomabold_32_113
0407b246 l     O .rodata	00000230 _ZL17tahomabold_32_114
0407b476 l     O .rodata	00000280 _ZL17tahomabold_32_115
0407b6f6 l     O .rodata	00000208 _ZL17tahomabold_32_116
0407b8fe l     O .rodata	00000320 _ZL17tahomabold_32_117
0407bc1e l     O .rodata	000002f8 _ZL17tahomabold_32_118
0407bf16 l     O .rodata	00000460 _ZL17tahomabold_32_119
0407c376 l     O .rodata	000002f8 _ZL17tahomabold_32_120
0407c66e l     O .rodata	000002d0 _ZL17tahomabold_32_121
0407c93e l     O .rodata	000002a8 _ZL17tahomabold_32_122
0407cbe6 l     O .rodata	00000320 _ZL17tahomabold_32_123
0407cf06 l     O .rodata	00000320 _ZL17tahomabold_32_124
0407d226 l     O .rodata	00000320 _ZL17tahomabold_32_125
0407d546 l     O .rodata	00000410 _ZL17tahomabold_32_126
00000000 l    df *ABS*	00000000 geometry.cpp
00000000 l    df *ABS*	00000000 gimp_bmp.cpp
00000000 l    df *ABS*	00000000 simple_graphics.cpp
00000000 l    df *ABS*	00000000 simple_text.cpp
00000000 l    df *ABS*	00000000 gui_gsensor.cpp
00000000 l    df *ABS*	00000000 H_Bar.cpp
00000000 l    df *ABS*	00000000 V_Bar.cpp
00000000 l    df *ABS*	00000000 ball.cpp
00000000 l    df *ABS*	00000000 ball_water.cpp
00000000 l    df *ABS*	00000000 bar.cpp
0407da50 l     O .rodata	000075a0 _ZL3bar
00000000 l    df *ABS*	00000000 bright.cpp
00000000 l    df *ABS*	00000000 dot.cpp
00000000 l    df *ABS*	00000000 h_Bar_Line.cpp
00000000 l    df *ABS*	00000000 h_bar_water.cpp
00000000 l    df *ABS*	00000000 ring.cpp
00000000 l    df *ABS*	00000000 v_Bar_Line.cpp
00000000 l    df *ABS*	00000000 v_bar_water.cpp
00000000 l    df *ABS*	00000000 main.cpp
00000000 l    df *ABS*	00000000 mpu9250.cpp
00000000 l    df *ABS*	00000000 I2C_core.cpp
00000000 l    df *ABS*	00000000 light_sensor.cpp
040f2fcc l     O .rwdata	00000004 _ZL25Light_I2C_Controller_Base
00000000 l    df *ABS*	00000000 multi_touch2.cpp
04008574 l     F .text	00000354 _ZL14mtc2_QueryDataP9MTC2_INFO
040088c8 l     F .text	00000088 _ZL8mtc2_ISRPv
00000000 l    df *ABS*	00000000 queue.cpp
00000000 l    df *ABS*	00000000 vip_fr.cpp
00000000 l    df *ABS*	00000000 s_atan.c
04085368 l     O .rodata	00000020 atanhi
04085348 l     O .rodata	00000020 atanlo
00000000 l    df *ABS*	00000000 s_fabs.c
00000000 l    df *ABS*	00000000 w_sqrt.c
00000000 l    df *ABS*	00000000 e_sqrt.c
00000000 l    df *ABS*	00000000 s_fpclassify.c
00000000 l    df *ABS*	00000000 s_lib_ver.c
00000000 l    df *ABS*	00000000 s_matherr.c
00000000 l    df *ABS*	00000000 lib2-divmod.c
00000000 l    df *ABS*	00000000 addsf3.c
00000000 l    df *ABS*	00000000 divsf3.c
00000000 l    df *ABS*	00000000 eqsf2.c
00000000 l    df *ABS*	00000000 mulsf3.c
00000000 l    df *ABS*	00000000 subsf3.c
00000000 l    df *ABS*	00000000 fixsfsi.c
00000000 l    df *ABS*	00000000 floatsisf.c
00000000 l    df *ABS*	00000000 floatunsisf.c
00000000 l    df *ABS*	00000000 adddf3.c
00000000 l    df *ABS*	00000000 divdf3.c
00000000 l    df *ABS*	00000000 gedf2.c
00000000 l    df *ABS*	00000000 ledf2.c
00000000 l    df *ABS*	00000000 muldf3.c
00000000 l    df *ABS*	00000000 subdf3.c
00000000 l    df *ABS*	00000000 fixdfsi.c
00000000 l    df *ABS*	00000000 floatsidf.c
00000000 l    df *ABS*	00000000 extendsfdf2.c
00000000 l    df *ABS*	00000000 truncdfsf2.c
00000000 l    df *ABS*	00000000 libgcc2.c
00000000 l    df *ABS*	00000000 libgcc2.c
00000000 l    df *ABS*	00000000 errno.c
00000000 l    df *ABS*	00000000 impure.c
040f1450 l     O .rwdata	00000424 impure_data
00000000 l    df *ABS*	00000000 malloc.c
00000000 l    df *ABS*	00000000 mallocr.c
00000000 l    df *ABS*	00000000 memcpy.c
00000000 l    df *ABS*	00000000 memset.c
00000000 l    df *ABS*	00000000 printf.c
00000000 l    df *ABS*	00000000 puts.c
00000000 l    df *ABS*	00000000 sbrkr.c
00000000 l    df *ABS*	00000000 sprintf.c
00000000 l    df *ABS*	00000000 strcpy.c
00000000 l    df *ABS*	00000000 strlen.c
00000000 l    df *ABS*	00000000 vfprintf.c
040854da l     O .rodata	00000010 zeroes.4389
040854ea l     O .rodata	00000010 blanks.4388
00000000 l    df *ABS*	00000000 vfprintf.c
040854fa l     O .rodata	00000010 zeroes.4404
040130c4 l     F .text	000000bc __sbprintf
0408550a l     O .rodata	00000010 blanks.4403
00000000 l    df *ABS*	00000000 wsetup.c
00000000 l    df *ABS*	00000000 dtoa.c
040132d4 l     F .text	00000200 quorem
00000000 l    df *ABS*	00000000 fflush.c
00000000 l    df *ABS*	00000000 findfp.c
04014e04 l     F .text	00000008 __fp_unlock
04014e18 l     F .text	0000019c __sinit.part.1
04014fb4 l     F .text	00000008 __fp_lock
00000000 l    df *ABS*	00000000 mallocr.c
00000000 l    df *ABS*	00000000 fvwrite.c
00000000 l    df *ABS*	00000000 fwalk.c
00000000 l    df *ABS*	00000000 int_errno.c
00000000 l    df *ABS*	00000000 locale.c
040f1c9c l     O .rwdata	00000020 lc_ctype_charset
040f1c7c l     O .rwdata	00000020 lc_message_charset
040f1cbc l     O .rwdata	00000038 lconv
00000000 l    df *ABS*	00000000 makebuf.c
00000000 l    df *ABS*	00000000 memchr.c
00000000 l    df *ABS*	00000000 memmove.c
00000000 l    df *ABS*	00000000 mprec.c
04085538 l     O .rodata	0000000c p05.2768
00000000 l    df *ABS*	00000000 mallocr.c
00000000 l    df *ABS*	00000000 stdio.c
00000000 l    df *ABS*	00000000 strcmp.c
00000000 l    df *ABS*	00000000 vfprintf.c
0408566c l     O .rodata	00000010 blanks.4332
0408565c l     O .rodata	00000010 zeroes.4333
00000000 l    df *ABS*	00000000 vfprintf.c
04018c78 l     F .text	000000fc __sprint_r.part.0
0408568c l     O .rodata	00000010 blanks.4348
0408567c l     O .rodata	00000010 zeroes.4349
0401a204 l     F .text	000000bc __sbprintf
00000000 l    df *ABS*	00000000 writer.c
00000000 l    df *ABS*	00000000 closer.c
00000000 l    df *ABS*	00000000 mallocr.c
00000000 l    df *ABS*	00000000 fclose.c
00000000 l    df *ABS*	00000000 fputwc.c
00000000 l    df *ABS*	00000000 fstatr.c
00000000 l    df *ABS*	00000000 isattyr.c
00000000 l    df *ABS*	00000000 lseekr.c
00000000 l    df *ABS*	00000000 readr.c
00000000 l    df *ABS*	00000000 wbuf.c
00000000 l    df *ABS*	00000000 wcrtomb.c
00000000 l    df *ABS*	00000000 wctomb_r.c
00000000 l    df *ABS*	00000000 libgcc2.c
00000000 l    df *ABS*	00000000 libgcc2.c
00000000 l    df *ABS*	00000000 eqdf2.c
00000000 l    df *ABS*	00000000 floatunsidf.c
00000000 l    df *ABS*	00000000 alt_close.c
0401b7d4 l     F .text	0000003c alt_get_errno
00000000 l    df *ABS*	00000000 alt_dcache_flush_all.c
00000000 l    df *ABS*	00000000 alt_dev.c
0401b928 l     F .text	0000002c alt_dev_null_write
00000000 l    df *ABS*	00000000 alt_errno.c
00000000 l    df *ABS*	00000000 alt_fstat.c
0401b954 l     F .text	0000003c alt_get_errno
00000000 l    df *ABS*	00000000 alt_iic.c
00000000 l    df *ABS*	00000000 alt_iic_isr_register.c
00000000 l    df *ABS*	00000000 alt_irq_vars.c
00000000 l    df *ABS*	00000000 alt_isatty.c
0401bce0 l     F .text	0000003c alt_get_errno
00000000 l    df *ABS*	00000000 alt_lseek.c
0401bdc0 l     F .text	0000003c alt_get_errno
00000000 l    df *ABS*	00000000 alt_main.c
00000000 l    df *ABS*	00000000 alt_malloc_lock.c
00000000 l    df *ABS*	00000000 alt_read.c
0401bf94 l     F .text	0000003c alt_get_errno
00000000 l    df *ABS*	00000000 alt_release_fd.c
00000000 l    df *ABS*	00000000 alt_sbrk.c
040f3008 l     O .rwdata	00000004 heap_end
00000000 l    df *ABS*	00000000 alt_tick.c
00000000 l    df *ABS*	00000000 alt_usleep.c
00000000 l    df *ABS*	00000000 alt_write.c
0401c3b4 l     F .text	0000003c alt_get_errno
00000000 l    df *ABS*	00000000 alt_sys_init.c
0401c4e8 l     F .text	00000034 alt_dev_reg
040f1e9c l     O .rwdata	000000cc epcs_flash_controller_0
040f1f68 l     O .rwdata	00001060 jtag_uart
00000000 l    df *ABS*	00000000 altera_avalon_epcs_flash_controller.c
0401c5c0 l     F .text	00000034 alt_flash_device_register
0401c648 l     F .text	000003f8 alt_epcs_flash_query
0401ca40 l     F .text	000000ec alt_epcs_flash_memcmp
0401ce18 l     F .text	00000094 alt_epcs_test_address
00000000 l    df *ABS*	00000000 altera_avalon_jtag_uart_fd.c
00000000 l    df *ABS*	00000000 altera_avalon_jtag_uart_init.c
0401d2e0 l     F .text	0000020c altera_avalon_jtag_uart_irq
0401d4ec l     F .text	000000a0 altera_avalon_jtag_uart_timeout
00000000 l    df *ABS*	00000000 altera_avalon_jtag_uart_ioctl.c
00000000 l    df *ABS*	00000000 altera_avalon_jtag_uart_read.c
00000000 l    df *ABS*	00000000 altera_avalon_jtag_uart_write.c
00000000 l    df *ABS*	00000000 altera_avalon_timer_sc.c
0401db24 l     F .text	00000078 alt_avalon_timer_sc_irq
00000000 l    df *ABS*	00000000 epcs_commands.c
0401dc74 l     F .text	00000038 epcs_test_wip
0401dcac l     F .text	0000003c epcs_await_wip_released
00000000 l    df *ABS*	00000000 alt_alarm_start.c
00000000 l    df *ABS*	00000000 alt_busy_sleep.c
00000000 l    df *ABS*	00000000 alt_dev_llist_insert.c
0401e4d8 l     F .text	0000003c alt_get_errno
00000000 l    df *ABS*	00000000 alt_do_ctors.c
00000000 l    df *ABS*	00000000 alt_do_dtors.c
00000000 l    df *ABS*	00000000 alt_flash_dev.c
00000000 l    df *ABS*	00000000 alt_io_redirect.c
0401e7d0 l     F .text	000000c4 alt_open_fd
00000000 l    df *ABS*	00000000 alt_open.c
0401e910 l     F .text	0000003c alt_get_errno
0401e94c l     F .text	000000c4 alt_file_locked
00000000 l    df *ABS*	00000000 altera_nios2_gen2_irq.c
00000000 l    df *ABS*	00000000 altera_avalon_spi.c
00000000 l    df *ABS*	00000000 alt_find_dev.c
00000000 l    df *ABS*	00000000 alt_find_file.c
00000000 l    df *ABS*	00000000 alt_get_fd.c
00000000 l    df *ABS*	00000000 atexit.c
00000000 l    df *ABS*	00000000 exit.c
00000000 l    df *ABS*	00000000 memcmp.c
00000000 l    df *ABS*	00000000 __atexit.c
00000000 l    df *ABS*	00000000 __call_atexit.c
00000000 l    df *ABS*	00000000 alt_exit.c
040f3050 g     O .bss	00000004 alt_instruction_exception_handler
040f0760 g     O .rwdata	00000010 v_Bar_Line
04000698 g     F .text	000003e8 _Z13load_gimp_bmpP17gimp_image_structP13bitmap_structi
04016f78 g     F .text	00000074 _mprec_log10
04007990 g     F .text	0000026c _Z13OC_I2CL_WritelhtPhi
0401cd8c g     F .text	0000008c alt_epcs_flash_get_info
04008f24 g     F .text	000000d8 _Z10VIPFR_InitmPvS_mm
04017064 g     F .text	0000008c __any_on
0401a7a0 g     F .text	00000054 _isatty_r
04085544 g     O .rodata	00000028 __mprec_tinytens
040ed23c g     O .rwdata	00000010 h_Bar_Line
0401bed0 g     F .text	0000007c alt_main
0400ebb0 g     F .text	00000090 strcpy
040040ec g     F .text	00000260 _Z22vid_print_string_alphaiiiiP15abc_font_structP16VIP_FRAME_READERPc
0400e9c4 g     F .text	000000c0 _puts_r
040f307c g     O .bss	00000100 alt_irq
04009bd4 g     F .text	00000014 fabs
0401a7f4 g     F .text	00000060 _lseek_r
04009be8 g     F .text	00000130 sqrt
04004534 g     F .text	000000e8 _Z29vid_string_pixel_length_alphaP15abc_font_structPc
04001dbc g     F .text	00000074 _Z13vid_get_pixeliiP16VIP_FRAME_READER
0401b6a4 g     F .text	00000088 .hidden __eqdf2
04000310 g     F .text	00000044 _Z5PtSetP5POINTii
04006198 g     F .text	00000040 _ZN7MPU92506whoamiEv
0400461c  w    F .text	00000144 _Z23seperate_color_channelsiPhS_S_S_
040f317c g       *ABS*	00000000 __alt_heap_start
0400946c g     F .text	00000048 _Z14FrameReader_Gomb
0400e988 g     F .text	0000003c printf
0401aa0c g     F .text	0000009c _wcrtomb_r
0400808c g     F .text	000000f8 _Z18Light_Get_ADCData0Pt
0401772c g     F .text	0000005c __sseek
04015154 g     F .text	00000010 __sinit
0401a8b4 g     F .text	00000140 __swbuf_r
04015c1c g     F .text	0000007c _setlocale_r
04014fbc g     F .text	00000068 __sfmoreglue
040f05c4 g     O .rwdata	00000199 v_Bar_Line_data
0401bf70 g     F .text	00000024 __malloc_unlock
0400a698 g     F .text	00000440 .hidden __divsf3
04095ce4 g     O .rwdata	00000010 H_Bar
040003b4 g     F .text	0000008c _Z11RectInflateP4RECTii
04015f98 g     F .text	0000015c memmove
0401513c g     F .text	00000018 _cleanup
040160f4 g     F .text	000000a8 _Balloc
04086e68 g     O .rwdata	00000415 cour10_font_array
0400b430 g     F .text	00000070 .hidden __fixsfsi
040004cc g     F .text	00000068 _Z8RectCopyP4RECTS0_
04000534 g     F .text	00000034 _Z9RectWidthP4RECT
04007eec g     F .text	00000068 _Z10Light_Initm
0400c848 g     F .text	000000dc .hidden __gtdf2
0401eb64 g     F .text	00000024 altera_nios2_gen2_irq_init
0400dea4 g     F .text	00000010 __errno
0401dce8 g     F .text	000000fc epcs_sector_erase
09001000 g     F .entry	00000000 __reset
04000e50 g     F .text	00000170 _Z21copy_pix_map_24_to_32PvlllS_l
04000fc0 g     F .text	00000148 _Z21copy_pix_map_24_to_24PvlllS_l
0401a744 g     F .text	0000005c _fstat_r
0400145c g     F .text	00000368 _Z17vid_scroll_stringP22vid_text_scroll_structP16VIP_FRAME_READER
040f3028 g     O .bss	00000004 errno
040176a8 g     F .text	00000008 __seofread
04008ffc g     F .text	0000003c _Z12VIPFR_UnInitP16VIP_FRAME_READER
04017a3c g     F .text	0000123c ___svfiprintf_internal_r
04009384 g     F .text	000000a8 _Z21FrameReader_SetFrame1mmmmmmm
040f3040 g     O .bss	00000004 alt_argv
040fafc8 g       *ABS*	00000000 _gp
0401c384 g     F .text	00000030 usleep
0400af4c g     F .text	000004e4 .hidden __subsf3
040d23e8 g     O .rwdata	00000d27 ball_water_data
0400914c g     F .text	00000050 _Z8VIPFR_GoP16VIP_FRAME_READERb
040f1d1c g     O .rwdata	00000180 alt_fd_list
04095cf4 g     O .rwdata	0000ea61 V_Bar_Data
0401df2c g     F .text	0000006c epcs_write_status_register
0401ed84 g     F .text	00000090 alt_find_dev
0400e6e8 g     F .text	00000148 memcpy
0400059c g     F .text	000000b4 _Z10PtDistanceP5POINTS0_
04014e0c g     F .text	0000000c _cleanup_r
0400daac g     F .text	000000dc .hidden __floatsidf
0401e894 g     F .text	0000007c alt_io_redirect
0400028c g     F .text	00000084 _Z10IsPtInRectP5POINTP4RECT
0400c924 g     F .text	000000f4 .hidden __ltdf2
0401f354 g       *ABS*	00000000 __DTOR_END__
0400ea84 g     F .text	00000014 puts
04004890  w    F .text	0000022c _Z15read_from_frameiiPhS_S_P16VIP_FRAME_READER
0401e734 g     F .text	0000009c alt_exception_cause_generated_bad_addr
04001b40 g     F .text	000000f0 _Z14vid_print_chariiicPcP16VIP_FRAME_READER
0401cf24 g     F .text	00000100 alt_epcs_flash_write_block
04009fa0 g     F .text	00000074 __fpclassifyd
04016ed4 g     F .text	000000a4 __ratio
0401a1e8 g     F .text	0000001c __vfiprintf_internal
0401d6e4 g     F .text	0000021c altera_avalon_jtag_uart_read
0400deb4 g     F .text	00000014 malloc
0400e958 g     F .text	00000030 _printf_r
0400a114 g     F .text	00000064 .hidden __udivsi3
0401bd1c g     F .text	000000a4 isatty
040f0770 g     O .rwdata	00000ccd v_bar_water_data
04085594 g     O .rodata	000000c8 __mprec_tens
04002440 g     F .text	0000006c _Z22vid_color_convert16_24tPc
04008dc4 g     F .text	00000098 _Z10QUEUE_PushP12QUEUE_STRUCTm
040070ac g     F .text	0000014c _Z14oc_i2c_init_exlll
04006064 g     F .text	00000134 _ZN7MPU925014set_gyro_scaleEi
04015c98 g     F .text	0000000c __locale_charset
04007848 g     F .text	00000148 _Z20OC_I2C_Read_ContinuelhPhi
040f3024 g     O .bss	00000004 __malloc_top_pad
040f2fe4 g     O .rwdata	00000004 __mb_cur_max
04015cc8 g     F .text	0000000c _localeconv_r
040065a0 g     F .text	00000108 _ZN7MPU92509calib_accEv
04006720 g     F .text	00000130 _ZN7MPU92509calib_magEv
04016500 g     F .text	0000003c __i2b
040155d8 g     F .text	000004bc __sfvwrite_r
04006ff4 g     F .text	00000058 _Z11Read32_DatallPl
0400ea98 g     F .text	00000054 _sbrk_r
04008d60 g     F .text	00000064 _Z12QUEUE_IsFullP12QUEUE_STRUCT
0400919c g     F .text	00000044 _Z18VIPFR_GetDrawFrameP16VIP_FRAME_READER
0401a854 g     F .text	00000060 _read_r
040f2ffc g     O .rwdata	00000004 alt_max_fd
0401a438 g     F .text	000000f0 _fclose_r
04014dd4 g     F .text	00000030 fflush
040f3020 g     O .bss	00000004 __malloc_max_sbrked_mem
04002b04 g     F .text	000003bc _Z25vid_draw_round_corner_boxiiiiiiiP16VIP_FRAME_READER
0400db88 g     F .text	00000110 .hidden __extendsfdf2
040862a8 g     O .rwdata	00000bc0 tahomabold_32
0400b6b4 g     F .text	000008ac .hidden __adddf3
0400aad8 g     F .text	00000078 .hidden __nesf2
0401ceac g     F .text	00000078 alt_epcs_flash_erase_block
04016c7c g     F .text	0000010c __b2d
0401b16c g     F .text	00000538 .hidden __umoddi3
0401bdfc g     F .text	000000d4 lseek
040f2fd0 g     O .rwdata	00000004 __fdlib_version
0400801c g     F .text	00000070 _Z17Light_PowerSwitchb
040f2fd4 g     O .rwdata	00000004 _global_impure_ptr
0401e1f8 g     F .text	0000005c epcs_exit_4_bytes_mode
040170f0 g     F .text	00000564 _realloc_r
040f317c g       *ABS*	00000000 __bss_end
0401bbf0 g     F .text	000000f0 alt_iic_isr_register
0401c27c g     F .text	00000108 alt_tick
0400942c g     F .text	00000040 _Z23FrameReader_SelectFramemh
0401abf4 g     F .text	00000578 .hidden __udivdi3
040064c0 g     F .text	000000e0 _ZN7MPU92509read_tempEv
0401a6a0 g     F .text	00000024 _fputwc_r
0408556c g     O .rodata	00000028 __mprec_bigtens
040162e4 g     F .text	00000104 __s2b
0401b72c g     F .text	000000a8 .hidden __floatunsidf
040ed24c g     O .rwdata	00000d42 h_bar_water_data
040169bc g     F .text	00000060 __mcmp
0400434c g     F .text	000001e8 _Z20vid_print_char_alphaiiiciP15abc_font_structP16VIP_FRAME_READER
04015174 g     F .text	00000018 __fp_lock_all
0401bba4 g     F .text	0000004c alt_ic_irq_enabled
0400206c g     F .text	000002e8 _Z19vid_draw_horiz_linessiiP16VIP_FRAME_READER
0401c1e0 g     F .text	0000009c alt_alarm_stop
04008314 g     F .text	00000054 _Z18Light_SetInterrupth
040f3038 g     O .bss	00000004 alt_irq_active
04003f30  w    F .text	00000054 _Z4min3iii
040000fc g     F .exceptions	000000d4 alt_irq_handler
040f1cf4 g     O .rwdata	00000028 alt_dev_null
040023a0 g     F .text	000000a0 _Z22vid_color_convert24_16Pc
040a4758 g     O .rwdata	00000010 V_Bar
0400827c g     F .text	0000004c _Z18Light_SetThreshLowPh
04007310 g     F .text	0000009c _Z9ACK_checkl
0401b8e0 g     F .text	00000048 alt_dcache_flush_all
040163e8 g     F .text	00000068 __hi0bits
0400da2c g     F .text	00000080 .hidden __fixdfsi
040f2ff4 g     O .rwdata	00000008 alt_dev_list
0401c3f0 g     F .text	000000f8 write
04003fe8  w    F .text	00000104 _Z25vid_put_pixel_in_span_mapiiPi
04004d18 g     F .text	00000170 _Z9DrawImageP16VIP_FRAME_READERP17gimp_image_structii
0401b990 g     F .text	000000b0 fstat
0400c924 g     F .text	000000f4 .hidden __ledf2
040035fc g     F .text	00000240 _Z19vid_bres_scan_edgesiiiiPi
04016734 g     F .text	00000140 __pow5mult
04007f54 g     F .text	00000064 _Z11Light_GetIDPh
04018d8c g     F .text	0000145c ___vfiprintf_internal_r
040f3034 g     O .bss	00000004 __nlocale_changed
0400a178 g     F .text	00000058 .hidden __umodsi3
04001c30 g     F .text	0000018c _Z13vid_set_pixeliijP16VIP_FRAME_READER
04008ad4 g     F .text	0000016c _Z14MTC2_GetStatusP9MTC2_INFOPhS1_PiS2_S2_S2_S2_S2_S2_S2_S2_S2_
0401e0b4 g     F .text	00000068 epcs_read_electronic_signature
04000a80 g     F .text	0000003c _Z18free_gimp_bmp_dataP13bitmap_struct
04008cec g     F .text	00000034 _Z12QUEUE_DeleteP12QUEUE_STRUCT
040f317c g       *ABS*	00000000 end
04008c7c g     F .text	00000070 _Z9QUEUE_Newi
0400634c g     F .text	00000174 _ZN7MPU92509read_gyroEv
04006994 g     F .text	00000490 _ZN7MPU92508read_allEv
04000d14 g     F .text	0000013c _Z21copy_pix_map_32_to_16PvlllS_l
04006f9c g     F .text	00000058 _Z12Write32_Datalll
0401d220 g     F .text	000000c0 altera_avalon_jtag_uart_init
04004abc  w    F .text	0000025c _Z14alpha_blendingiiihPhS_S_P16VIP_FRAME_READER
040001d0 g     F .exceptions	00000074 alt_instruction_exception_entry
0401f354 g       *ABS*	00000000 __CTOR_LIST__
08000000 g       *ABS*	00000000 __alt_stack_pointer
0401db9c g     F .text	0000007c alt_avalon_timer_sc_init
0400de40 g     F .text	00000064 .hidden __clzsi2
0401d900 g     F .text	00000224 altera_avalon_jtag_uart_write
04003edc  w    F .text	00000054 _Z4max3iii
04015164 g     F .text	00000004 __sfp_lock_acquire
04015eb4 g     F .text	000000e4 memchr
04010eb0 g     F .text	000021f8 ___vfprintf_internal_r
0400eaec g     F .text	00000058 _sprintf_r
040071f8 g     F .text	0000008c _Z13oc_i2c_uninitl
040152c8 g     F .text	00000310 _free_r
04015ca4 g     F .text	00000010 __locale_mb_cur_max
0401f1a0 g     F .text	00000180 __call_exitprocs
040f3030 g     O .bss	00000004 __mlocale_changed
04004e88 g     F .text	00000110 _Z10draw_arrayPjiiP16VIP_FRAME_READERiij
040f2fdc g     O .rwdata	00000004 __malloc_sbrk_base
04000244 g     F .text	00000048 _start
040061d8 g     F .text	00000174 _ZN7MPU92508read_accEv
040f3048 g     O .bss	00000004 _alt_tick_rate
040082c8 g     F .text	0000004c _Z19Light_SetThreshHighPh
04016874 g     F .text	00000148 __lshift
0401eb88 g     F .text	000001fc alt_avalon_spi_command
04000bc4 g     F .text	00000150 _Z21copy_pix_map_32_to_24PvlllS_l
040f304c g     O .bss	00000004 _alt_nticks
0401bfd0 g     F .text	000000fc read
0401c554 g     F .text	0000006c alt_sys_init
0400b4a0 g     F .text	00000124 .hidden __floatsisf
0401786c g     F .text	000001d0 __ssprint_r
04008368 g     F .text	00000064 _Z18Light_GetInterruptPh
040f1440 g     O .rwdata	00000010 v_bar_water
0400274c g     F .text	00000270 _Z20vid_draw_sloped_linetttttiP16VIP_FRAME_READER
0401f088 g     F .text	00000118 __register_exitproc
04007284 g     F .text	0000008c _Z16ACK_single_checkl
040073ac g     F .text	0000024c _Z12OC_I2C_WritelhhPhi
0401653c g     F .text	000001f8 __multiply
0400926c g     F .text	00000070 _Z16DRAW_EraseScreenP16VIP_FRAME_READERm
0401d58c g     F .text	00000068 altera_avalon_jtag_uart_close
04005d08 g     F .text	00000054 _ZN7MPU925014testConnectionEv
040f3054 g     O .bss	00000028 __malloc_current_mallinfo
0400aad8 g     F .text	00000078 .hidden __eqsf2
04016d88 g     F .text	0000014c __d2b
0401dc18 g     F .text	0000005c epcs_read_status_register
04005ae8 g     F .text	00000088 _ZN7MPU9250C1Emh
04005b70 g     F .text	000000ac _ZN7MPU92508WriteRegEhh
040095a4 g     F .text	000000a8 _Z23VIPFR_ReserveBackgroundP16VIP_FRAME_READER
0401d0bc g     F .text	00000060 altera_avalon_jtag_uart_read_fd
0401ef1c g     F .text	000000a4 alt_get_fd
0401e380 g     F .text	00000158 alt_busy_sleep
04003f84  w    F .text	00000064 _Z9max_diff3iii
040050fc g     F .text	000000e4 _Z9Get_lightPtS_
0401a320 g     F .text	00000054 _close_r
04008184 g     F .text	000000f8 _Z18Light_Get_ADCData1Pt
040029bc g     F .text	00000148 _Z15vid_draw_circleiiiicP16VIP_FRAME_READER
0401e11c g     F .text	00000080 epcs_read_device_id
0401f00c g     F .text	0000007c memcmp
0401d17c g     F .text	00000050 altera_avalon_jtag_uart_close_fd
040f317c g       *ABS*	00000000 __alt_stack_base
0401d1cc g     F .text	00000054 altera_avalon_jtag_uart_ioctl_fd
09001000 g       *ABS*	00000000 __alt_mem_epcs_flash_controller_0
0401f354 g     O .rodata	000448f0 gesture_bmp
04013180 g     F .text	00000154 __swsetup_r
0400383c g     F .text	000003b4 _Z17vid_draw_triangleP15triangle_structP16VIP_FRAME_READER
0400bf60 g     F .text	000008e8 .hidden __divdf3
04015024 g     F .text	00000118 __sfp
04016fec g     F .text	00000078 __copybits
04000568 g     F .text	00000034 _Z10RectHeightP4RECT
040f1874 g     O .rwdata	00000408 __malloc_av_
04015170 g     F .text	00000004 __sinit_lock_release
04005060 g     F .text	0000009c _Z14InitBackGroundP16VIP_FRAME_READER
040094b4 g     F .text	00000048 _Z18VIPFR_GetFrameSizeP16VIP_FRAME_READER
0400ca18 g     F .text	00000718 .hidden __muldf3
04017654 g     F .text	00000054 __sread
0401ee14 g     F .text	00000108 alt_find_file
0401e514 g     F .text	000000a4 alt_dev_llist_insert
0401bf4c g     F .text	00000024 __malloc_lock
0401c130 g     F .text	000000b0 sbrk
0400ecd8 g     F .text	000021d8 ___svfprintf_internal_r
04014d78 g     F .text	0000005c _fflush_r
0401a374 g     F .text	000000c4 _calloc_r
040f3014 g     O .rwdata	00000008 alt_flash_dev_list
04000440 g     F .text	0000008c _Z10RectOffsetP4RECTii
040f301c g       *ABS*	00000000 __bss_start
0400e830 g     F .text	00000128 memset
04005a58 g     F .text	00000090 main
04009038 g     F .text	00000114 _Z18VIPFR_SetFrameSizeP16VIP_FRAME_READERii
040f3044 g     O .bss	00000004 alt_envp
040f301c g     O .bss	00000004 __malloc_max_total_mem
0401d11c g     F .text	00000060 altera_avalon_jtag_uart_write_fd
0401a9f4 g     F .text	00000018 __swbuf
040856e8 g     O .rwdata	00000bc0 tahomabold_20
04008a88 g     F .text	0000004c _Z11MTC2_UnInitP9MTC2_INFO
04017788 g     F .text	00000008 __sclose
0400a014 g     F .text	00000008 matherr
08000000 g       *ABS*	00000000 __alt_heap_limit
0401a528 g     F .text	00000014 fclose
0400dc98 g     F .text	000001a8 .hidden __truncdfsf2
040f2fc8 g     O .rwdata	00000004 cour10_font
040134d4 g     F .text	00001688 _dtoa_r
0400dedc g     F .text	0000080c _malloc_r
0401ab68 g     F .text	00000030 __ascii_wctomb
040f3000 g     O .rwdata	00000004 alt_errno
04015a94 g     F .text	000000c4 _fwalk
040ece64 g     O .rwdata	00000211 dot_data
0400a01c g     F .text	00000084 .hidden __divsi3
04002ec0 g     F .text	0000073c _Z23vid_round_corner_pointsiiiiiiicP16VIP_FRAME_READER
040151a4 g     F .text	00000124 _malloc_trim_r
0401f354 g       *ABS*	00000000 __CTOR_END__
0400ab50 g     F .text	000003fc .hidden __mulsf3
040024ac g     F .text	000002a0 _Z29vid_copy_line_to_frame_bufferiiPciiP16VIP_FRAME_READER
0401cb2c g     F .text	00000260 alt_epcs_flash_write
04017790 g     F .text	000000dc strcmp
0401f354 g       *ABS*	00000000 __DTOR_LIST__
040092dc g     F .text	000000a8 _Z21FrameReader_SetFrame0mmmmmmm
04001310 g     F .text	0000014c _Z22vid_scroll_string_initiiiiiPciS_
0401b6a4 g     F .text	00000088 .hidden __nedf2
040d3110 g     O .rwdata	00000010 ball_water
0401c51c g     F .text	00000038 alt_irq_init
0401c0cc g     F .text	00000064 alt_release_fd
04006e24 g     F .text	000000d0 _ZN7MPU925010getMotion9EPfS0_S0_S0_S0_S0_S0_S0_S0_
0400964c g     F .text	00000588 atan
04005c94 g     F .text	00000074 _ZN7MPU92508ReadRegsEhPhj
0400eb44 g     F .text	0000006c sprintf
0408538d g     O .rodata	00000100 .hidden __clz_tab
040f302c g     O .bss	00000004 _PathLocale
04007fb8 g     F .text	00000064 _Z15Light_GetTimingPh
04005f38 g     F .text	0000012c _ZN7MPU925013set_acc_scaleEi
0401efc0 g     F .text	00000014 atexit
04005ae8 g     F .text	00000088 _ZN7MPU9250C2Emh
04001108 g     F .text	00000160 _Z21copy_pix_map_24_to_16PvlllS_l
0401a2c0 g     F .text	00000060 _write_r
04008504 g     F .text	00000070 _Z14I2C_Read_LightahPh
04015cd4 g     F .text	00000018 setlocale
04000abc g     F .text	00000108 _Z21copy_pix_map_32_to_32PvlllS_l
04003e10  w    F .text	000000cc _Z13vid_draw_lineiiiiiiP16VIP_FRAME_READER
040f2fd8 g     O .rwdata	00000004 _impure_ptr
040f303c g     O .bss	00000004 alt_argc
04014b5c g     F .text	0000021c __sflush_r
0401e618 g     F .text	00000060 _do_dtors
04015cc0 g     F .text	00000008 __locale_cjk_lang
040094fc g     F .text	00000054 _Z19VIPFR_ReadDrawFrameP16VIP_FRAME_READERPv
04000020 g       .exceptions	00000000 alt_irq_entry
040ed078 g     O .rwdata	00000010 dot
04016c18 g     F .text	00000064 __ulp
0401518c g     F .text	00000018 __fp_unlock_all
0400765c g     F .text	000001ec _Z11OC_I2C_ReadlhhPhi
04008c40 g     F .text	0000003c _Z15MTC2_ClearEventP9MTC2_INFO
04003cdc g     F .text	00000134 _Z11CropImage16PsS_ssssssss
040f2fec g     O .rwdata	00000008 alt_fs_list
04008950 g     F .text	00000138 _Z9MTC2_Initmmmm
040a4768 g     O .rwdata	0002dc6d ball_data
04000354 g     F .text	00000060 _Z7RectSetP4RECTiiii
040d23d8 g     O .rwdata	00000010 ball
040d3120 g     O .rwdata	00019d32 bright_data
040075f8 g     F .text	00000064 _Z18ACK_judge_for_readl
040083cc g     F .text	00000054 _Z15Light_SetTimingh
04015cec g     F .text	0000000c localeconv
0401dde4 g     F .text	000000f4 epcs_read_buffer
04009d18 g     F .text	00000288 __ieee754_sqrt
040017c4 g     F .text	0000011c _Z14vid_move_blockiiiiiiiP16VIP_FRAME_READER
0401c5f4 g     F .text	00000054 alt_epcs_flash_init
0401ba40 g     F .text	00000050 alt_ic_isr_register
040f301c g       *ABS*	00000000 _edata
04008420 g     F .text	00000074 _Z15I2C_Write_Lightahh
04008494 g     F .text	00000070 _Z17I2C_Write_Light16ahPh
040f317c g       *ABS*	00000000 _end
0401e678 g     F .text	00000068 alt_flash_open_dev
0401a53c g     F .text	00000164 __fputwc
0401d5f4 g     F .text	000000f0 altera_avalon_jtag_uart_ioctl
04008e5c g     F .text	00000094 _Z9QUEUE_PopP12QUEUE_STRUCT
04003bf0 g     F .text	000000ec _Z11CopyImage16PsS_ssss
0401bb18 g     F .text	0000008c alt_ic_irq_disable
040f05b4 g     O .rwdata	00000010 ring
0401e19c g     F .text	0000005c epcs_enter_4_bytes_mode
040012cc g     F .text	00000044 _Z22vid_scroll_string_quitP22vid_text_scroll_struct
040176b0 g     F .text	0000007c __swrite
04087280 g     O .rwdata	0000ea61 H_Bar_Data
040f2fe0 g     O .rwdata	00000004 __malloc_trim_threshold
0400704c g     F .text	00000060 _Z11oc_i2c_initl
04001e30 g     F .text	0000023c _Z15vid_paint_blockiiiiiP16VIP_FRAME_READER
04015cb4 g     F .text	0000000c __locale_msgcharset
040018e0 g     F .text	00000108 _Z16vid_print_stringiiiPcP16VIP_FRAME_READERS_
0401efd4 g     F .text	00000038 exit
040ed088 g     O .rwdata	000001b1 h_Bar_Line_data
04015b58 g     F .text	000000c4 _fwalk_reent
0400b5c4 g     F .text	000000f0 .hidden __floatunsisf
04016a1c g     F .text	000001fc __mdiff
0401e6e0 g     F .text	00000054 alt_flash_close_dev
0400a0a0 g     F .text	00000074 .hidden __modsi3
04008d20 g     F .text	00000040 _Z13QUEUE_IsEmptyP12QUEUE_STRUCT
08000000 g       *ABS*	00000000 __alt_data_end
04000020 g     F .exceptions	00000000 alt_exception
04015168 g     F .text	00000004 __sfp_lock_release
04000000 g       *ABS*	00000000 __alt_mem_sdram
04006ef4 g     F .text	000000a8 _ZN7MPU925010getMotion6EPfS0_S0_S0_S0_S0_
04000650 g     F .text	00000048 _Z6PtCopyP5POINTS0_
0401f320 g     F .text	00000034 _exit
04004760  w    F .text	00000130 _Z20merge_color_channelsihhhPh
0401e254 g     F .text	0000012c alt_alarm_start
04002354 g     F .text	0000004c _Z16vid_merge_colorsiii
04015cf8 g     F .text	000001bc __smakebuf_r
04009550 g     F .text	00000054 _Z20VIPFR_WriteDrawFrameP16VIP_FRAME_READERPv
040066a8 g     F .text	00000078 _ZN7MPU925013AK8963_whoamiEv
0400ec40 g     F .text	00000098 strlen
0401ded8 g     F .text	00000054 epcs_write_enable
0401ea10 g     F .text	00000154 open
0400c848 g     F .text	000000dc .hidden __gedf2
040051e0 g     F .text	00000878 _Z11GUI_GSensorP9MTC2_INFO
04001268 g     F .text	00000064 _Z16vid_clean_screenP16VIP_FRAME_READERi
040f2fe8 g     O .rwdata	00000004 __wctomb
04018d74 g     F .text	00000018 __sprint_r
04005c1c g     F .text	00000078 _ZN7MPU92507ReadRegEhh
040019e8 g     F .text	00000158 _Z12vid_draw_boxiiiiiiP16VIP_FRAME_READER
040ece54 g     O .rwdata	00000010 bright
040f3004 g     O .rwdata	00000004 alt_priority_mask
04007bfc g     F .text	000002f0 _Z12OC_I2CL_ReadlhtPhi
0401ba90 g     F .text	00000088 alt_ic_irq_enable
040130a8 g     F .text	0000001c __vfprintf_internal
0401ab98 g     F .text	0000005c _wctomb_r
0400d130 g     F .text	000008fc .hidden __subdf3
0401d024 g     F .text	00000098 alt_epcs_flash_read
04016450 g     F .text	000000b0 __lo0bits
040edf90 g     O .rwdata	00000010 h_bar_water
04005d5c g     F .text	000001dc _ZN7MPU925010initializeEii
040f300c g     O .rwdata	00000008 alt_alarm_list
0401e5b8 g     F .text	00000060 _do_ctors
0401aaa8 g     F .text	000000c0 wcrtomb
040091e0 g     F .text	0000008c _Z21VIPFR_ActiveDrawFrameP16VIP_FRAME_READER
0401b810 g     F .text	000000d0 close
04008ef0 g     F .text	00000034 _Z11QUEUE_EmptyP12QUEUE_STRUCT
0400a1d0 g     F .text	000004c8 .hidden __addsf3
04004f98 g     F .text	000000c8 _Z20DrawTransparentImageP16VIP_FRAME_READERP17gimp_image_structiij
0401a6c4 g     F .text	00000080 fputwc
040edfa0 g     O .rwdata	00002614 ring_data
0400dec8 g     F .text	00000014 free
0401516c g     F .text	00000004 __sinit_lock_acquire
0401df98 g     F .text	0000011c epcs_write_buffer
04006850 g     F .text	00000144 _ZN7MPU92508read_magEv
040161c4 g     F .text	00000120 __multadd
0401619c g     F .text	00000028 _Bfree



Disassembly of section .exceptions:

04000020 <alt_exception>:

#else /* ALT_EXCEPTION_STACK disabled */
        /* 
         * Reserve space on normal stack for registers about to be pushed.
         */
        addi  sp, sp, -76
 4000020:	deffed04 	addi	sp,sp,-76
         * documentation for details).
         *
         * Leave a gap in the stack frame at 4(sp) for the muldiv handler to
         * store zero into.
         */
        stw   ra,  0(sp)
 4000024:	dfc00015 	stw	ra,0(sp)
        stw   r1,   8(sp)
 4000028:	d8400215 	stw	at,8(sp)
        stw   r2,  12(sp)
 400002c:	d8800315 	stw	r2,12(sp)
        stw   r3,  16(sp)
 4000030:	d8c00415 	stw	r3,16(sp)
        stw   r4,  20(sp)
 4000034:	d9000515 	stw	r4,20(sp)
        stw   r5,  24(sp)
 4000038:	d9400615 	stw	r5,24(sp)
        stw   r6,  28(sp)
 400003c:	d9800715 	stw	r6,28(sp)
        stw   r7,  32(sp)
 4000040:	d9c00815 	stw	r7,32(sp)
        rdctl r5, estatus   /* Read early to avoid usage stall */
 4000044:	000b307a 	rdctl	r5,estatus
        stw   r8,  36(sp)
 4000048:	da000915 	stw	r8,36(sp)
        stw   r9,  40(sp)
 400004c:	da400a15 	stw	r9,40(sp)
        stw   r10, 44(sp)
 4000050:	da800b15 	stw	r10,44(sp)
        stw   r11, 48(sp)
 4000054:	dac00c15 	stw	r11,48(sp)
        stw   r12, 52(sp)
 4000058:	db000d15 	stw	r12,52(sp)
        stw   r13, 56(sp)
 400005c:	db400e15 	stw	r13,56(sp)
        stw   r14, 60(sp)
 4000060:	db800f15 	stw	r14,60(sp)
        stw   r15, 64(sp)
 4000064:	dbc01015 	stw	r15,64(sp)
        /*
         * ea-4 contains the address of the instruction being executed
         * when the exception occured. For interrupt exceptions, we will
         * will be re-issue the isntruction. Store it in 72(sp)
         */
        stw   r5,  68(sp)  /* estatus */
 4000068:	d9401115 	stw	r5,68(sp)
        addi  r15, ea, -4  /* instruction that caused exception */
 400006c:	ebffff04 	addi	r15,ea,-4
        stw   r15,  72(sp)
 4000070:	dbc01215 	stw	r15,72(sp)
#else
        /*
         * Test to see if the exception was a software exception or caused 
         * by an external interrupt, and vector accordingly.
         */
        rdctl r4, ipending
 4000074:	0009313a 	rdctl	r4,ipending
        andi  r2, r5, 1
 4000078:	2880004c 	andi	r2,r5,1
        beq   r2, zero, .Lnot_irq
 400007c:	10000326 	beq	r2,zero,400008c <alt_exception+0x6c>
        beq   r4, zero, .Lnot_irq
 4000080:	20000226 	beq	r4,zero,400008c <alt_exception+0x6c>
        /*
         * Now that all necessary registers have been preserved, call 
         * alt_irq_handler() to process the interrupts.
         */

        call alt_irq_handler
 4000084:	40000fc0 	call	40000fc <alt_irq_handler>

        .section .exceptions.irqreturn, "xa"

        br    .Lexception_exit
 4000088:	00000706 	br	40000a8 <alt_exception+0x88>
         * upon completion, so we write ea (address of instruction *after*
         * the one where the exception occured) into 72(sp). The actual
         * instruction that caused the exception is written in r2, which these
         * handlers will utilize.
         */
        stw ea, 72(sp) /* EA is PC+4 so will skip over instruction causing exception */
 400008c:	df401215 	stw	ea,72(sp)
.Lunknown_16bit:
        addi.n r4, r4, 2 /* Need PC+2 to skip over instruction causing exception */
        stw r4, 72(sp)

#else /* CDX is not Enabled and all instructions are 32bits */
        ldw r2, -4(ea) /* Instruction value that caused exception */
 4000090:	e8bfff17 	ldw	r2,-4(ea)
         * debugger is present) or go into an infinite loop since the
         * handling behavior is undefined; in that case we will not return here.
         */

        /* Load exception-causing address as first argument (r4) */
        addi   r4, ea, -4
 4000094:	e93fff04 	addi	r4,ea,-4

        /* Call the instruction-exception entry */
        call   alt_instruction_exception_entry
 4000098:	40001d00 	call	40001d0 <alt_instruction_exception_entry>
         * instruction
         *
         * Return code was 0: Skip. The instruction after the exception is
         * already stored in 72(sp).
         */
        bne   r2, r0, .Lexception_exit
 400009c:	1000021e 	bne	r2,zero,40000a8 <alt_exception+0x88>

        /*
         * Otherwise, modify 72(sp) to re-issue the instruction that caused the
         * exception.
         */
        addi  r15, ea, -4  /* instruction that caused exception */
 40000a0:	ebffff04 	addi	r15,ea,-4
        stw   r15,  72(sp)
 40000a4:	dbc01215 	stw	r15,72(sp)
        /* 
         * Restore the saved registers, so that all general purpose registers 
         * have been restored to their state at the time the interrupt occured.
         */

        ldw   r5,  68(sp)
 40000a8:	d9401117 	ldw	r5,68(sp)
        ldw   ea,  72(sp)  /* This becomes the PC once eret is executed */
 40000ac:	df401217 	ldw	ea,72(sp)
        ldw   ra,   0(sp)
 40000b0:	dfc00017 	ldw	ra,0(sp)

        wrctl estatus, r5
 40000b4:	2801707a 	wrctl	estatus,r5

        ldw   r1,   8(sp)
 40000b8:	d8400217 	ldw	at,8(sp)
        ldw   r2,  12(sp)
 40000bc:	d8800317 	ldw	r2,12(sp)
        ldw   r3,  16(sp)
 40000c0:	d8c00417 	ldw	r3,16(sp)
        ldw   r4,  20(sp)
 40000c4:	d9000517 	ldw	r4,20(sp)
        ldw   r5,  24(sp)
 40000c8:	d9400617 	ldw	r5,24(sp)
        ldw   r6,  28(sp)
 40000cc:	d9800717 	ldw	r6,28(sp)
        ldw   r7,  32(sp)
 40000d0:	d9c00817 	ldw	r7,32(sp)

#if defined(ALT_EXCEPTION_STACK) && defined(ALT_STACK_CHECK)
        ldw   et, %gprel(alt_exception_old_stack_limit)(gp)
#endif

        ldw   r8,  36(sp)
 40000d4:	da000917 	ldw	r8,36(sp)
        ldw   r9,  40(sp)
 40000d8:	da400a17 	ldw	r9,40(sp)
        ldw   r10, 44(sp)
 40000dc:	da800b17 	ldw	r10,44(sp)
        ldw   r11, 48(sp)
 40000e0:	dac00c17 	ldw	r11,48(sp)
        ldw   r12, 52(sp)
 40000e4:	db000d17 	ldw	r12,52(sp)
        ldw   r13, 56(sp)
 40000e8:	db400e17 	ldw	r13,56(sp)
        ldw   r14, 60(sp)
 40000ec:	db800f17 	ldw	r14,60(sp)
        ldw   r15, 64(sp)
 40000f0:	dbc01017 	ldw	r15,64(sp)
        stw   et, %gprel(alt_stack_limit_value)(gp)
        stw   zero, %gprel(alt_exception_old_stack_limit)(gp)
#endif /* ALT_STACK_CHECK */
        ldw   sp,  76(sp)
#else /* ALT_EXCEPTION_STACK disabled */
        addi  sp, sp, 76
 40000f4:	dec01304 	addi	sp,sp,76

        /*
         * Return to the interrupted instruction.
         */

        eret
 40000f8:	ef80083a 	eret

040000fc <alt_irq_handler>:
 * instruction is present if the macro ALT_CI_INTERRUPT_VECTOR defined.
 */

void alt_irq_handler (void) __attribute__ ((section (".exceptions")));
void alt_irq_handler (void)
{
 40000fc:	defff904 	addi	sp,sp,-28
 4000100:	dfc00615 	stw	ra,24(sp)
 4000104:	df000515 	stw	fp,20(sp)
 4000108:	df000504 	addi	fp,sp,20
  
  /*
   * Notify the operating system that we are at interrupt level.
   */ 
  
  ALT_OS_INT_ENTER();
 400010c:	0001883a 	nop
#ifndef NIOS2_EIC_PRESENT
static ALT_INLINE alt_u32 ALT_ALWAYS_INLINE alt_irq_pending (void)
{
  alt_u32 active;

  NIOS2_READ_IPENDING (active);
 4000110:	0005313a 	rdctl	r2,ipending
 4000114:	e0bffe15 	stw	r2,-8(fp)

  return active;
 4000118:	e0bffe17 	ldw	r2,-8(fp)
   * Consider the case where the high priority interupt is asserted during
   * the interrupt entry sequence for a lower priority interrupt to see why
   * this is the case.
   */

  active = alt_irq_pending ();
 400011c:	e0bffb15 	stw	r2,-20(fp)

  do
  {
    i = 0;
 4000120:	e03ffd15 	stw	zero,-12(fp)
    mask = 1;
 4000124:	00800044 	movi	r2,1
 4000128:	e0bffc15 	stw	r2,-16(fp)
     * called to clear the interrupt condition.
     */

    do
    {
      if (active & mask)
 400012c:	e0fffb17 	ldw	r3,-20(fp)
 4000130:	e0bffc17 	ldw	r2,-16(fp)
 4000134:	1884703a 	and	r2,r3,r2
 4000138:	10001426 	beq	r2,zero,400018c <alt_irq_handler+0x90>
      { 
#ifdef ALT_ENHANCED_INTERRUPT_API_PRESENT
        alt_irq[i].handler(alt_irq[i].context); 
 400013c:	008103f4 	movhi	r2,1039
 4000140:	108c1f04 	addi	r2,r2,12412
 4000144:	e0fffd17 	ldw	r3,-12(fp)
 4000148:	180690fa 	slli	r3,r3,3
 400014c:	10c5883a 	add	r2,r2,r3
 4000150:	10c00017 	ldw	r3,0(r2)
 4000154:	008103f4 	movhi	r2,1039
 4000158:	108c1f04 	addi	r2,r2,12412
 400015c:	e13ffd17 	ldw	r4,-12(fp)
 4000160:	200890fa 	slli	r4,r4,3
 4000164:	1105883a 	add	r2,r2,r4
 4000168:	10800104 	addi	r2,r2,4
 400016c:	10800017 	ldw	r2,0(r2)
 4000170:	1009883a 	mov	r4,r2
 4000174:	183ee83a 	callr	r3
#else
        alt_irq[i].handler(alt_irq[i].context, i); 
#endif
        break;
 4000178:	0001883a 	nop
#ifndef NIOS2_EIC_PRESENT
static ALT_INLINE alt_u32 ALT_ALWAYS_INLINE alt_irq_pending (void)
{
  alt_u32 active;

  NIOS2_READ_IPENDING (active);
 400017c:	0005313a 	rdctl	r2,ipending
 4000180:	e0bfff15 	stw	r2,-4(fp)

  return active;
 4000184:	e0bfff17 	ldw	r2,-4(fp)
 4000188:	00000706 	br	40001a8 <alt_irq_handler+0xac>
      }
      mask <<= 1;
 400018c:	e0bffc17 	ldw	r2,-16(fp)
 4000190:	1085883a 	add	r2,r2,r2
 4000194:	e0bffc15 	stw	r2,-16(fp)
      i++;
 4000198:	e0bffd17 	ldw	r2,-12(fp)
 400019c:	10800044 	addi	r2,r2,1
 40001a0:	e0bffd15 	stw	r2,-12(fp)

    } while (1);
 40001a4:	003fe106 	br	400012c <__alt_mem_epcs_flash_controller_0+0xfafff12c>

    active = alt_irq_pending ();
 40001a8:	e0bffb15 	stw	r2,-20(fp)
    
  } while (active);
 40001ac:	e0bffb17 	ldw	r2,-20(fp)
 40001b0:	103fdb1e 	bne	r2,zero,4000120 <__alt_mem_epcs_flash_controller_0+0xfafff120>

  /*
   * Notify the operating system that interrupt processing is complete.
   */ 

  ALT_OS_INT_EXIT();
 40001b4:	0001883a 	nop
}
 40001b8:	0001883a 	nop
 40001bc:	e037883a 	mov	sp,fp
 40001c0:	dfc00117 	ldw	ra,4(sp)
 40001c4:	df000017 	ldw	fp,0(sp)
 40001c8:	dec00204 	addi	sp,sp,8
 40001cc:	f800283a 	ret

040001d0 <alt_instruction_exception_entry>:
 * that handler if it has been registered. Absent a handler, it will
 * break break or hang as discussed below.
 */
int 
alt_instruction_exception_entry (alt_u32 exception_pc)
{
 40001d0:	defffb04 	addi	sp,sp,-20
 40001d4:	dfc00415 	stw	ra,16(sp)
 40001d8:	df000315 	stw	fp,12(sp)
 40001dc:	df000304 	addi	fp,sp,12
 40001e0:	e13fff15 	stw	r4,-4(fp)
 * NIOS2_EXCEPTION_CAUSE_NOT_PRESENT. Your handling routine should
 * check the validity of the cause argument before proceeding.
 */
#ifdef NIOS2_HAS_EXTRA_EXCEPTION_INFO
  /* Get exception cause & "badaddr" */
  NIOS2_READ_EXCEPTION(cause);
 40001e4:	000531fa 	rdctl	r2,exception
 40001e8:	e0bffd15 	stw	r2,-12(fp)
  cause = ( (cause & NIOS2_EXCEPTION_REG_CAUSE_MASK) >>
 40001ec:	e0bffd17 	ldw	r2,-12(fp)
 40001f0:	10801f0c 	andi	r2,r2,124
 40001f4:	1004d0ba 	srli	r2,r2,2
 40001f8:	e0bffd15 	stw	r2,-12(fp)
              NIOS2_EXCEPTION_REG_CAUSE_OFST );

  NIOS2_READ_BADADDR(badaddr);
 40001fc:	0005333a 	rdctl	r2,badaddr
 4000200:	e0bffe15 	stw	r2,-8(fp)
#else
  cause = NIOS2_EXCEPTION_CAUSE_NOT_PRESENT;
  badaddr = 0;
#endif /* NIOS2_HAS_EXTRA_EXCEPTION_INFO */

  if(alt_instruction_exception_handler) {
 4000204:	d0a02217 	ldw	r2,-32632(gp)
 4000208:	10000726 	beq	r2,zero,4000228 <alt_instruction_exception_entry+0x58>
     * Call handler. Its return value indicates whether the exception-causing
     * instruction should be re-issued. The code that called us,
     * alt_eceptions_entry.S, will look at this value and adjust the ea
     * register as necessary
     */
    return alt_instruction_exception_handler(cause, exception_pc, badaddr);
 400020c:	d0a02217 	ldw	r2,-32632(gp)
 4000210:	e0fffd17 	ldw	r3,-12(fp)
 4000214:	e1bffe17 	ldw	r6,-8(fp)
 4000218:	e17fff17 	ldw	r5,-4(fp)
 400021c:	1809883a 	mov	r4,r3
 4000220:	103ee83a 	callr	r2
 4000224:	00000206 	br	4000230 <alt_instruction_exception_entry+0x60>
   *    (a peripheral which negates its interrupt output before its
   *    interrupt handler has been executed will cause spurious interrupts)
   */
  else {
#ifdef NIOS2_HAS_DEBUG_STUB
    NIOS2_BREAK();
 4000228:	003da03a 	break	0
      ;
#endif /* NIOS2_HAS_DEBUG_STUB */
  }

  /* We should not get here. Remove compiler warning. */
  return NIOS2_EXCEPTION_RETURN_REISSUE_INST;
 400022c:	0005883a 	mov	r2,zero
}
 4000230:	e037883a 	mov	sp,fp
 4000234:	dfc00117 	ldw	ra,4(sp)
 4000238:	df000017 	ldw	fp,0(sp)
 400023c:	dec00204 	addi	sp,sp,8
 4000240:	f800283a 	ret

Disassembly of section .text:

04000244 <_start>:

    /* Assume the data cache size is always a power of two. */
#if NIOS2_DCACHE_SIZE > 0x8000
    movhi r2, %hi(NIOS2_DCACHE_SIZE)
#else
    movui r2, NIOS2_DCACHE_SIZE
 4000244:	00820014 	movui	r2,2048
#endif

0:
    initd 0(r2)
 4000248:	10000033 	initd	0(r2)
#ifdef NIOS2_ECC_PRESENT
    addi r2, r2, -4
#else
    addi r2, r2, -NIOS2_DCACHE_LINE_SIZE
 400024c:	10bff804 	addi	r2,r2,-32
#endif
    bgt r2, zero, 0b
 4000250:	00bffd16 	blt	zero,r2,4000248 <__alt_mem_epcs_flash_controller_0+0xfafff248>

    /*
     * Now that the caches are initialized, set up the stack pointer and global pointer.
     * The values provided by the linker are assumed to be correctly aligned.
     */
    movhi sp, %hi(__alt_stack_pointer)
 4000254:	06c20034 	movhi	sp,2048
    ori sp, sp, %lo(__alt_stack_pointer)
 4000258:	dec00014 	ori	sp,sp,0
    movhi gp, %hi(_gp)
 400025c:	068103f4 	movhi	gp,1039
    ori gp, gp, %lo(_gp)
 4000260:	d6abf214 	ori	gp,gp,45000
 */
#ifndef ALT_SIM_OPTIMIZE
    /* Log that the BSS is about to be cleared. */
    ALT_LOG_PUTS(alt_log_msg_bss)

    movhi r2, %hi(__bss_start)
 4000264:	008103f4 	movhi	r2,1039
    ori r2, r2, %lo(__bss_start)
 4000268:	108c0714 	ori	r2,r2,12316

    movhi r3, %hi(__bss_end)
 400026c:	00c103f4 	movhi	r3,1039
    ori r3, r3, %lo(__bss_end)
 4000270:	18cc5f14 	ori	r3,r3,12668

    beq r2, r3, 1f
 4000274:	10c00326 	beq	r2,r3,4000284 <_start+0x40>

0:
    stw zero, (r2)
 4000278:	10000015 	stw	zero,0(r2)
    addi r2, r2, 4
 400027c:	10800104 	addi	r2,r2,4
    bltu r2, r3, 0b
 4000280:	10fffd36 	bltu	r2,r3,4000278 <__alt_mem_epcs_flash_controller_0+0xfafff278>

    /* Log that alt_main is about to be called. */
    ALT_LOG_PUTS(alt_log_msg_alt_main)

    /* Call the C entry point. It should never return. */
    call alt_main
 4000284:	401bed00 	call	401bed0 <alt_main>

04000288 <alt_after_alt_main>:

    /* Wait in infinite loop in case alt_main does return. */
alt_after_alt_main:
    br alt_after_alt_main
 4000288:	003fff06 	br	4000288 <__alt_mem_epcs_flash_controller_0+0xfafff288>

0400028c <_Z10IsPtInRectP5POINTP4RECT>:

//#define BOUND(x, mini, maxi) ((x<(mini)?(mini):( (x>(maxi))?(maxi):(x) )))

//#define COPY_POINT(pt_des, pt_src)  memcpy(&pt_des, &pt_src,sizeof(POINT))

bool IsPtInRect(POINT *pt, RECT *rc){
 400028c:	defffc04 	addi	sp,sp,-16
 4000290:	df000315 	stw	fp,12(sp)
 4000294:	df000304 	addi	fp,sp,12
 4000298:	e13ffe15 	stw	r4,-8(fp)
 400029c:	e17fff15 	stw	r5,-4(fp)
    bool bYes = FALSE;
 40002a0:	e03ffd05 	stb	zero,-12(fp)
    
    if (pt->x >= rc->left && pt->x <= rc->right && pt->y >= rc->top && pt->y <= rc->bottom)
 40002a4:	e0bffe17 	ldw	r2,-8(fp)
 40002a8:	10c00017 	ldw	r3,0(r2)
 40002ac:	e0bfff17 	ldw	r2,-4(fp)
 40002b0:	10800017 	ldw	r2,0(r2)
 40002b4:	18801116 	blt	r3,r2,40002fc <_Z10IsPtInRectP5POINTP4RECT+0x70>
 40002b8:	e0bffe17 	ldw	r2,-8(fp)
 40002bc:	10800017 	ldw	r2,0(r2)
 40002c0:	e0ffff17 	ldw	r3,-4(fp)
 40002c4:	18c00117 	ldw	r3,4(r3)
 40002c8:	18800c16 	blt	r3,r2,40002fc <_Z10IsPtInRectP5POINTP4RECT+0x70>
 40002cc:	e0bffe17 	ldw	r2,-8(fp)
 40002d0:	10c00117 	ldw	r3,4(r2)
 40002d4:	e0bfff17 	ldw	r2,-4(fp)
 40002d8:	10800217 	ldw	r2,8(r2)
 40002dc:	18800716 	blt	r3,r2,40002fc <_Z10IsPtInRectP5POINTP4RECT+0x70>
 40002e0:	e0bffe17 	ldw	r2,-8(fp)
 40002e4:	10800117 	ldw	r2,4(r2)
 40002e8:	e0ffff17 	ldw	r3,-4(fp)
 40002ec:	18c00317 	ldw	r3,12(r3)
 40002f0:	18800216 	blt	r3,r2,40002fc <_Z10IsPtInRectP5POINTP4RECT+0x70>
        bYes = TRUE;
 40002f4:	00800044 	movi	r2,1
 40002f8:	e0bffd05 	stb	r2,-12(fp)
    
    return bYes;
 40002fc:	e0bffd03 	ldbu	r2,-12(fp)
}
 4000300:	e037883a 	mov	sp,fp
 4000304:	df000017 	ldw	fp,0(sp)
 4000308:	dec00104 	addi	sp,sp,4
 400030c:	f800283a 	ret

04000310 <_Z5PtSetP5POINTii>:

void PtSet(POINT *pt, int x, int y){
 4000310:	defffc04 	addi	sp,sp,-16
 4000314:	df000315 	stw	fp,12(sp)
 4000318:	df000304 	addi	fp,sp,12
 400031c:	e13ffd15 	stw	r4,-12(fp)
 4000320:	e17ffe15 	stw	r5,-8(fp)
 4000324:	e1bfff15 	stw	r6,-4(fp)
    pt->x = x;
 4000328:	e0bffd17 	ldw	r2,-12(fp)
 400032c:	e0fffe17 	ldw	r3,-8(fp)
 4000330:	10c00015 	stw	r3,0(r2)
    pt->y = y;
 4000334:	e0bffd17 	ldw	r2,-12(fp)
 4000338:	e0ffff17 	ldw	r3,-4(fp)
 400033c:	10c00115 	stw	r3,4(r2)
}
 4000340:	0001883a 	nop
 4000344:	e037883a 	mov	sp,fp
 4000348:	df000017 	ldw	fp,0(sp)
 400034c:	dec00104 	addi	sp,sp,4
 4000350:	f800283a 	ret

04000354 <_Z7RectSetP4RECTiiii>:

void RectSet(RECT *rc, int left, int right, int top, int bottom){
 4000354:	defffb04 	addi	sp,sp,-20
 4000358:	df000415 	stw	fp,16(sp)
 400035c:	df000404 	addi	fp,sp,16
 4000360:	e13ffc15 	stw	r4,-16(fp)
 4000364:	e17ffd15 	stw	r5,-12(fp)
 4000368:	e1bffe15 	stw	r6,-8(fp)
 400036c:	e1ffff15 	stw	r7,-4(fp)
    rc->left = left;
 4000370:	e0bffc17 	ldw	r2,-16(fp)
 4000374:	e0fffd17 	ldw	r3,-12(fp)
 4000378:	10c00015 	stw	r3,0(r2)
    rc->right = right;
 400037c:	e0bffc17 	ldw	r2,-16(fp)
 4000380:	e0fffe17 	ldw	r3,-8(fp)
 4000384:	10c00115 	stw	r3,4(r2)
    rc->top = top;
 4000388:	e0bffc17 	ldw	r2,-16(fp)
 400038c:	e0ffff17 	ldw	r3,-4(fp)
 4000390:	10c00215 	stw	r3,8(r2)
    rc->bottom = bottom;
 4000394:	e0bffc17 	ldw	r2,-16(fp)
 4000398:	e0c00117 	ldw	r3,4(fp)
 400039c:	10c00315 	stw	r3,12(r2)
}
 40003a0:	0001883a 	nop
 40003a4:	e037883a 	mov	sp,fp
 40003a8:	df000017 	ldw	fp,0(sp)
 40003ac:	dec00104 	addi	sp,sp,4
 40003b0:	f800283a 	ret

040003b4 <_Z11RectInflateP4RECTii>:

void RectInflate(RECT *rc, int x, int y){
 40003b4:	defffc04 	addi	sp,sp,-16
 40003b8:	df000315 	stw	fp,12(sp)
 40003bc:	df000304 	addi	fp,sp,12
 40003c0:	e13ffd15 	stw	r4,-12(fp)
 40003c4:	e17ffe15 	stw	r5,-8(fp)
 40003c8:	e1bfff15 	stw	r6,-4(fp)
    rc->left -= x;
 40003cc:	e0bffd17 	ldw	r2,-12(fp)
 40003d0:	10c00017 	ldw	r3,0(r2)
 40003d4:	e0bffe17 	ldw	r2,-8(fp)
 40003d8:	1887c83a 	sub	r3,r3,r2
 40003dc:	e0bffd17 	ldw	r2,-12(fp)
 40003e0:	10c00015 	stw	r3,0(r2)
    rc->right += x;
 40003e4:	e0bffd17 	ldw	r2,-12(fp)
 40003e8:	10c00117 	ldw	r3,4(r2)
 40003ec:	e0bffe17 	ldw	r2,-8(fp)
 40003f0:	1887883a 	add	r3,r3,r2
 40003f4:	e0bffd17 	ldw	r2,-12(fp)
 40003f8:	10c00115 	stw	r3,4(r2)
    rc->top -= y;
 40003fc:	e0bffd17 	ldw	r2,-12(fp)
 4000400:	10c00217 	ldw	r3,8(r2)
 4000404:	e0bfff17 	ldw	r2,-4(fp)
 4000408:	1887c83a 	sub	r3,r3,r2
 400040c:	e0bffd17 	ldw	r2,-12(fp)
 4000410:	10c00215 	stw	r3,8(r2)
    rc->bottom += y;
 4000414:	e0bffd17 	ldw	r2,-12(fp)
 4000418:	10c00317 	ldw	r3,12(r2)
 400041c:	e0bfff17 	ldw	r2,-4(fp)
 4000420:	1887883a 	add	r3,r3,r2
 4000424:	e0bffd17 	ldw	r2,-12(fp)
 4000428:	10c00315 	stw	r3,12(r2)
}
 400042c:	0001883a 	nop
 4000430:	e037883a 	mov	sp,fp
 4000434:	df000017 	ldw	fp,0(sp)
 4000438:	dec00104 	addi	sp,sp,4
 400043c:	f800283a 	ret

04000440 <_Z10RectOffsetP4RECTii>:

void RectOffset(RECT *rc, int x, int y){
 4000440:	defffc04 	addi	sp,sp,-16
 4000444:	df000315 	stw	fp,12(sp)
 4000448:	df000304 	addi	fp,sp,12
 400044c:	e13ffd15 	stw	r4,-12(fp)
 4000450:	e17ffe15 	stw	r5,-8(fp)
 4000454:	e1bfff15 	stw	r6,-4(fp)
    rc->left += x;
 4000458:	e0bffd17 	ldw	r2,-12(fp)
 400045c:	10c00017 	ldw	r3,0(r2)
 4000460:	e0bffe17 	ldw	r2,-8(fp)
 4000464:	1887883a 	add	r3,r3,r2
 4000468:	e0bffd17 	ldw	r2,-12(fp)
 400046c:	10c00015 	stw	r3,0(r2)
    rc->right += x;
 4000470:	e0bffd17 	ldw	r2,-12(fp)
 4000474:	10c00117 	ldw	r3,4(r2)
 4000478:	e0bffe17 	ldw	r2,-8(fp)
 400047c:	1887883a 	add	r3,r3,r2
 4000480:	e0bffd17 	ldw	r2,-12(fp)
 4000484:	10c00115 	stw	r3,4(r2)
    rc->top += y;
 4000488:	e0bffd17 	ldw	r2,-12(fp)
 400048c:	10c00217 	ldw	r3,8(r2)
 4000490:	e0bfff17 	ldw	r2,-4(fp)
 4000494:	1887883a 	add	r3,r3,r2
 4000498:	e0bffd17 	ldw	r2,-12(fp)
 400049c:	10c00215 	stw	r3,8(r2)
    rc->bottom += y;
 40004a0:	e0bffd17 	ldw	r2,-12(fp)
 40004a4:	10c00317 	ldw	r3,12(r2)
 40004a8:	e0bfff17 	ldw	r2,-4(fp)
 40004ac:	1887883a 	add	r3,r3,r2
 40004b0:	e0bffd17 	ldw	r2,-12(fp)
 40004b4:	10c00315 	stw	r3,12(r2)
}
 40004b8:	0001883a 	nop
 40004bc:	e037883a 	mov	sp,fp
 40004c0:	df000017 	ldw	fp,0(sp)
 40004c4:	dec00104 	addi	sp,sp,4
 40004c8:	f800283a 	ret

040004cc <_Z8RectCopyP4RECTS0_>:

void RectCopy(RECT *rcDes, RECT *rcSrc){
 40004cc:	defffd04 	addi	sp,sp,-12
 40004d0:	df000215 	stw	fp,8(sp)
 40004d4:	df000204 	addi	fp,sp,8
 40004d8:	e13ffe15 	stw	r4,-8(fp)
 40004dc:	e17fff15 	stw	r5,-4(fp)
    rcDes->left = rcSrc->left;
 40004e0:	e0bfff17 	ldw	r2,-4(fp)
 40004e4:	10c00017 	ldw	r3,0(r2)
 40004e8:	e0bffe17 	ldw	r2,-8(fp)
 40004ec:	10c00015 	stw	r3,0(r2)
    rcDes->right = rcSrc->right;
 40004f0:	e0bfff17 	ldw	r2,-4(fp)
 40004f4:	10c00117 	ldw	r3,4(r2)
 40004f8:	e0bffe17 	ldw	r2,-8(fp)
 40004fc:	10c00115 	stw	r3,4(r2)
    rcDes->top = rcSrc->top;
 4000500:	e0bfff17 	ldw	r2,-4(fp)
 4000504:	10c00217 	ldw	r3,8(r2)
 4000508:	e0bffe17 	ldw	r2,-8(fp)
 400050c:	10c00215 	stw	r3,8(r2)
    rcDes->bottom = rcSrc->bottom;
 4000510:	e0bfff17 	ldw	r2,-4(fp)
 4000514:	10c00317 	ldw	r3,12(r2)
 4000518:	e0bffe17 	ldw	r2,-8(fp)
 400051c:	10c00315 	stw	r3,12(r2)
}
 4000520:	0001883a 	nop
 4000524:	e037883a 	mov	sp,fp
 4000528:	df000017 	ldw	fp,0(sp)
 400052c:	dec00104 	addi	sp,sp,4
 4000530:	f800283a 	ret

04000534 <_Z9RectWidthP4RECT>:

int RectWidth(RECT *rc){
 4000534:	defffe04 	addi	sp,sp,-8
 4000538:	df000115 	stw	fp,4(sp)
 400053c:	df000104 	addi	fp,sp,4
 4000540:	e13fff15 	stw	r4,-4(fp)
    return (rc->right-rc->left);
 4000544:	e0bfff17 	ldw	r2,-4(fp)
 4000548:	10c00117 	ldw	r3,4(r2)
 400054c:	e0bfff17 	ldw	r2,-4(fp)
 4000550:	10800017 	ldw	r2,0(r2)
 4000554:	1885c83a 	sub	r2,r3,r2
}
 4000558:	e037883a 	mov	sp,fp
 400055c:	df000017 	ldw	fp,0(sp)
 4000560:	dec00104 	addi	sp,sp,4
 4000564:	f800283a 	ret

04000568 <_Z10RectHeightP4RECT>:

int RectHeight(RECT *rc){
 4000568:	defffe04 	addi	sp,sp,-8
 400056c:	df000115 	stw	fp,4(sp)
 4000570:	df000104 	addi	fp,sp,4
 4000574:	e13fff15 	stw	r4,-4(fp)
    return (rc->bottom-rc->top);
 4000578:	e0bfff17 	ldw	r2,-4(fp)
 400057c:	10c00317 	ldw	r3,12(r2)
 4000580:	e0bfff17 	ldw	r2,-4(fp)
 4000584:	10800217 	ldw	r2,8(r2)
 4000588:	1885c83a 	sub	r2,r3,r2
}
 400058c:	e037883a 	mov	sp,fp
 4000590:	df000017 	ldw	fp,0(sp)
 4000594:	dec00104 	addi	sp,sp,4
 4000598:	f800283a 	ret

0400059c <_Z10PtDistanceP5POINTS0_>:

int PtDistance(POINT *pt1, POINT *pt2){
 400059c:	defff904 	addi	sp,sp,-28
 40005a0:	dfc00615 	stw	ra,24(sp)
 40005a4:	df000515 	stw	fp,20(sp)
 40005a8:	df000504 	addi	fp,sp,20
 40005ac:	e13ffe15 	stw	r4,-8(fp)
 40005b0:	e17fff15 	stw	r5,-4(fp)
    int nDistance;
    int a, b;
    a = pt1->x - pt2->x;
 40005b4:	e0bffe17 	ldw	r2,-8(fp)
 40005b8:	10c00017 	ldw	r3,0(r2)
 40005bc:	e0bfff17 	ldw	r2,-4(fp)
 40005c0:	10800017 	ldw	r2,0(r2)
 40005c4:	1885c83a 	sub	r2,r3,r2
 40005c8:	e0bffb15 	stw	r2,-20(fp)
    b = pt1->y - pt2->y;
 40005cc:	e0bffe17 	ldw	r2,-8(fp)
 40005d0:	10c00117 	ldw	r3,4(r2)
 40005d4:	e0bfff17 	ldw	r2,-4(fp)
 40005d8:	10800117 	ldw	r2,4(r2)
 40005dc:	1885c83a 	sub	r2,r3,r2
 40005e0:	e0bffc15 	stw	r2,-16(fp)
    nDistance = a*a + b*b;
 40005e4:	e0fffb17 	ldw	r3,-20(fp)
 40005e8:	e0bffb17 	ldw	r2,-20(fp)
 40005ec:	1887383a 	mul	r3,r3,r2
 40005f0:	e13ffc17 	ldw	r4,-16(fp)
 40005f4:	e0bffc17 	ldw	r2,-16(fp)
 40005f8:	2085383a 	mul	r2,r4,r2
 40005fc:	1885883a 	add	r2,r3,r2
 4000600:	e0bffd15 	stw	r2,-12(fp)
    nDistance = sqrt(nDistance);
 4000604:	e13ffd17 	ldw	r4,-12(fp)
 4000608:	400daac0 	call	400daac <__floatsidf>
 400060c:	100b883a 	mov	r5,r2
 4000610:	180d883a 	mov	r6,r3
 4000614:	2809883a 	mov	r4,r5
 4000618:	300b883a 	mov	r5,r6
 400061c:	4009be80 	call	4009be8 <sqrt>
 4000620:	100b883a 	mov	r5,r2
 4000624:	180d883a 	mov	r6,r3
 4000628:	2809883a 	mov	r4,r5
 400062c:	300b883a 	mov	r5,r6
 4000630:	400da2c0 	call	400da2c <__fixdfsi>
 4000634:	e0bffd15 	stw	r2,-12(fp)
    
    return nDistance;
 4000638:	e0bffd17 	ldw	r2,-12(fp)
}
 400063c:	e037883a 	mov	sp,fp
 4000640:	dfc00117 	ldw	ra,4(sp)
 4000644:	df000017 	ldw	fp,0(sp)
 4000648:	dec00204 	addi	sp,sp,8
 400064c:	f800283a 	ret

04000650 <_Z6PtCopyP5POINTS0_>:

void PtCopy(POINT *ptDes, POINT *ptSrc){
 4000650:	defffd04 	addi	sp,sp,-12
 4000654:	df000215 	stw	fp,8(sp)
 4000658:	df000204 	addi	fp,sp,8
 400065c:	e13ffe15 	stw	r4,-8(fp)
 4000660:	e17fff15 	stw	r5,-4(fp)
    ptDes->x = ptSrc->x;
 4000664:	e0bfff17 	ldw	r2,-4(fp)
 4000668:	10c00017 	ldw	r3,0(r2)
 400066c:	e0bffe17 	ldw	r2,-8(fp)
 4000670:	10c00015 	stw	r3,0(r2)
    ptDes->y = ptSrc->y;
 4000674:	e0bfff17 	ldw	r2,-4(fp)
 4000678:	10c00117 	ldw	r3,4(r2)
 400067c:	e0bffe17 	ldw	r2,-8(fp)
 4000680:	10c00115 	stw	r3,4(r2)
}
 4000684:	0001883a 	nop
 4000688:	e037883a 	mov	sp,fp
 400068c:	df000017 	ldw	fp,0(sp)
 4000690:	dec00104 	addi	sp,sp,4
 4000694:	f800283a 	ret

04000698 <_Z13load_gimp_bmpP17gimp_image_structP13bitmap_structi>:
#include "gimp_bmp.h"

int load_gimp_bmp( GimpImage *gimp_image, 
                    bitmap_struct *bmp, 
                    int output_bits_per_pixel )
{
 4000698:	defff604 	addi	sp,sp,-40
 400069c:	dfc00915 	stw	ra,36(sp)
 40006a0:	df000815 	stw	fp,32(sp)
 40006a4:	df000804 	addi	fp,sp,32
 40006a8:	e13ffd15 	stw	r4,-12(fp)
 40006ac:	e17ffe15 	stw	r5,-8(fp)
 40006b0:	e1bfff15 	stw	r6,-4(fp)
  int ret_code = 0;
 40006b4:	e03ffa15 	stw	zero,-24(fp)
  
  int output_bytes_per_pixel = output_bits_per_pixel / 8;
 40006b8:	e0bfff17 	ldw	r2,-4(fp)
 40006bc:	1000010e 	bge	r2,zero,40006c4 <_Z13load_gimp_bmpP17gimp_image_structP13bitmap_structi+0x2c>
 40006c0:	108001c4 	addi	r2,r2,7
 40006c4:	1005d0fa 	srai	r2,r2,3
 40006c8:	e0bffb15 	stw	r2,-20(fp)
  int num_pixels = gimp_image->width * gimp_image->height;
 40006cc:	e0bffd17 	ldw	r2,-12(fp)
 40006d0:	10c00017 	ldw	r3,0(r2)
 40006d4:	e0bffd17 	ldw	r2,-12(fp)
 40006d8:	10800117 	ldw	r2,4(r2)
 40006dc:	1885383a 	mul	r2,r3,r2
 40006e0:	e0bffc15 	stw	r2,-16(fp)
  
  bmp->biWidth = gimp_image->width;
 40006e4:	e0bffd17 	ldw	r2,-12(fp)
 40006e8:	10800017 	ldw	r2,0(r2)
 40006ec:	1007883a 	mov	r3,r2
 40006f0:	e0bffe17 	ldw	r2,-8(fp)
 40006f4:	10c0000d 	sth	r3,0(r2)
  bmp->biHeight = gimp_image->height;
 40006f8:	e0bffd17 	ldw	r2,-12(fp)
 40006fc:	10800117 	ldw	r2,4(r2)
 4000700:	1007883a 	mov	r3,r2
 4000704:	e0bffe17 	ldw	r2,-8(fp)
 4000708:	10c0008d 	sth	r3,2(r2)
  bmp->biBitCount = output_bits_per_pixel;
 400070c:	e0bfff17 	ldw	r2,-4(fp)
 4000710:	1007883a 	mov	r3,r2
 4000714:	e0bffe17 	ldw	r2,-8(fp)
 4000718:	10c0010d 	sth	r3,4(r2)
  
  /* try to allocate memory for bitmap data */
  if ((bmp->data = (char *)malloc(num_pixels * output_bytes_per_pixel)) == NULL)
 400071c:	e0fffc17 	ldw	r3,-16(fp)
 4000720:	e0bffb17 	ldw	r2,-20(fp)
 4000724:	1885383a 	mul	r2,r3,r2
 4000728:	1009883a 	mov	r4,r2
 400072c:	400deb40 	call	400deb4 <malloc>
 4000730:	1007883a 	mov	r3,r2
 4000734:	e0bffe17 	ldw	r2,-8(fp)
 4000738:	10c00315 	stw	r3,12(r2)
 400073c:	e0bffe17 	ldw	r2,-8(fp)
 4000740:	10800317 	ldw	r2,12(r2)
 4000744:	1005003a 	cmpeq	r2,r2,zero
 4000748:	10803fcc 	andi	r2,r2,255
 400074c:	10000326 	beq	r2,zero,400075c <_Z13load_gimp_bmpP17gimp_image_structP13bitmap_structi+0xc4>
  {
    ret_code = -1;
 4000750:	00bfffc4 	movi	r2,-1
 4000754:	e0bffa15 	stw	r2,-24(fp)
 4000758:	0000c306 	br	4000a68 <_Z13load_gimp_bmpP17gimp_image_structP13bitmap_structi+0x3d0>
  }
  else
  {
    if( output_bits_per_pixel == 16 )
 400075c:	e0bfff17 	ldw	r2,-4(fp)
 4000760:	10800418 	cmpnei	r2,r2,16
 4000764:	10003e1e 	bne	r2,zero,4000860 <_Z13load_gimp_bmpP17gimp_image_structP13bitmap_structi+0x1c8>
    {
      if( gimp_image->bytes_per_pixel == 4 )
 4000768:	e0bffd17 	ldw	r2,-12(fp)
 400076c:	10800217 	ldw	r2,8(r2)
 4000770:	10800118 	cmpnei	r2,r2,4
 4000774:	10001b1e 	bne	r2,zero,40007e4 <_Z13load_gimp_bmpP17gimp_image_structP13bitmap_structi+0x14c>
      {
        copy_pix_map_32_to_16( gimp_image->pixel_data, //void *src_ptr,
 4000778:	e0bffd17 	ldw	r2,-12(fp)
 400077c:	11000317 	ldw	r4,12(r2)
                               bmp->biWidth, //long src_active_width,
 4000780:	e0bffe17 	ldw	r2,-8(fp)
 4000784:	1080000b 	ldhu	r2,0(r2)
  {
    if( output_bits_per_pixel == 16 )
    {
      if( gimp_image->bytes_per_pixel == 4 )
      {
        copy_pix_map_32_to_16( gimp_image->pixel_data, //void *src_ptr,
 4000788:	117fffcc 	andi	r5,r2,65535
 400078c:	2960001c 	xori	r5,r5,32768
 4000790:	29600004 	addi	r5,r5,-32768
                               bmp->biWidth, //long src_active_width,
                               bmp->biHeight, // long src_active_height,
 4000794:	e0bffe17 	ldw	r2,-8(fp)
 4000798:	1080008b 	ldhu	r2,2(r2)
  {
    if( output_bits_per_pixel == 16 )
    {
      if( gimp_image->bytes_per_pixel == 4 )
      {
        copy_pix_map_32_to_16( gimp_image->pixel_data, //void *src_ptr,
 400079c:	11bfffcc 	andi	r6,r2,65535
 40007a0:	31a0001c 	xori	r6,r6,32768
 40007a4:	31a00004 	addi	r6,r6,-32768
                               bmp->biWidth, //long src_active_width,
                               bmp->biHeight, // long src_active_height,
                               bmp->biWidth, //long src_line_width,
 40007a8:	e0bffe17 	ldw	r2,-8(fp)
 40007ac:	1080000b 	ldhu	r2,0(r2)
  {
    if( output_bits_per_pixel == 16 )
    {
      if( gimp_image->bytes_per_pixel == 4 )
      {
        copy_pix_map_32_to_16( gimp_image->pixel_data, //void *src_ptr,
 40007b0:	11ffffcc 	andi	r7,r2,65535
 40007b4:	39e0001c 	xori	r7,r7,32768
 40007b8:	39e00004 	addi	r7,r7,-32768
                               bmp->biWidth, //long src_active_width,
                               bmp->biHeight, // long src_active_height,
                               bmp->biWidth, //long src_line_width,
                               bmp->data, //void *dest_ptr,
 40007bc:	e0bffe17 	ldw	r2,-8(fp)
 40007c0:	10800317 	ldw	r2,12(r2)
                               bmp->biWidth  );  //long dest_line_width
 40007c4:	e0fffe17 	ldw	r3,-8(fp)
 40007c8:	18c0000b 	ldhu	r3,0(r3)
  {
    if( output_bits_per_pixel == 16 )
    {
      if( gimp_image->bytes_per_pixel == 4 )
      {
        copy_pix_map_32_to_16( gimp_image->pixel_data, //void *src_ptr,
 40007cc:	18ffffcc 	andi	r3,r3,65535
 40007d0:	18e0001c 	xori	r3,r3,32768
 40007d4:	18e00004 	addi	r3,r3,-32768
                               bmp->biWidth, //long src_active_width,
                               bmp->biHeight, // long src_active_height,
                               bmp->biWidth, //long src_line_width,
                               bmp->data, //void *dest_ptr,
                               bmp->biWidth  );  //long dest_line_width
 40007d8:	d8c00115 	stw	r3,4(sp)
 40007dc:	d8800015 	stw	r2,0(sp)
 40007e0:	4000d140 	call	4000d14 <_Z21copy_pix_map_32_to_16PvlllS_l>
      }
      if( gimp_image->bytes_per_pixel == 3 )
 40007e4:	e0bffd17 	ldw	r2,-12(fp)
 40007e8:	10800217 	ldw	r2,8(r2)
 40007ec:	108000d8 	cmpnei	r2,r2,3
 40007f0:	10001b1e 	bne	r2,zero,4000860 <_Z13load_gimp_bmpP17gimp_image_structP13bitmap_structi+0x1c8>
      {
        copy_pix_map_24_to_16( gimp_image->pixel_data, //void *src_ptr,
 40007f4:	e0bffd17 	ldw	r2,-12(fp)
 40007f8:	11000317 	ldw	r4,12(r2)
                               bmp->biWidth, //long src_active_width,
 40007fc:	e0bffe17 	ldw	r2,-8(fp)
 4000800:	1080000b 	ldhu	r2,0(r2)
                               bmp->data, //void *dest_ptr,
                               bmp->biWidth  );  //long dest_line_width
      }
      if( gimp_image->bytes_per_pixel == 3 )
      {
        copy_pix_map_24_to_16( gimp_image->pixel_data, //void *src_ptr,
 4000804:	117fffcc 	andi	r5,r2,65535
 4000808:	2960001c 	xori	r5,r5,32768
 400080c:	29600004 	addi	r5,r5,-32768
                               bmp->biWidth, //long src_active_width,
                               bmp->biHeight, // long src_active_height,
 4000810:	e0bffe17 	ldw	r2,-8(fp)
 4000814:	1080008b 	ldhu	r2,2(r2)
                               bmp->data, //void *dest_ptr,
                               bmp->biWidth  );  //long dest_line_width
      }
      if( gimp_image->bytes_per_pixel == 3 )
      {
        copy_pix_map_24_to_16( gimp_image->pixel_data, //void *src_ptr,
 4000818:	11bfffcc 	andi	r6,r2,65535
 400081c:	31a0001c 	xori	r6,r6,32768
 4000820:	31a00004 	addi	r6,r6,-32768
                               bmp->biWidth, //long src_active_width,
                               bmp->biHeight, // long src_active_height,
                               bmp->biWidth, //long src_line_width,
 4000824:	e0bffe17 	ldw	r2,-8(fp)
 4000828:	1080000b 	ldhu	r2,0(r2)
                               bmp->data, //void *dest_ptr,
                               bmp->biWidth  );  //long dest_line_width
      }
      if( gimp_image->bytes_per_pixel == 3 )
      {
        copy_pix_map_24_to_16( gimp_image->pixel_data, //void *src_ptr,
 400082c:	11ffffcc 	andi	r7,r2,65535
 4000830:	39e0001c 	xori	r7,r7,32768
 4000834:	39e00004 	addi	r7,r7,-32768
                               bmp->biWidth, //long src_active_width,
                               bmp->biHeight, // long src_active_height,
                               bmp->biWidth, //long src_line_width,
                               bmp->data, //void *dest_ptr,
 4000838:	e0bffe17 	ldw	r2,-8(fp)
 400083c:	10800317 	ldw	r2,12(r2)
                               bmp->biWidth  );  //long dest_line_width
 4000840:	e0fffe17 	ldw	r3,-8(fp)
 4000844:	18c0000b 	ldhu	r3,0(r3)
                               bmp->data, //void *dest_ptr,
                               bmp->biWidth  );  //long dest_line_width
      }
      if( gimp_image->bytes_per_pixel == 3 )
      {
        copy_pix_map_24_to_16( gimp_image->pixel_data, //void *src_ptr,
 4000848:	18ffffcc 	andi	r3,r3,65535
 400084c:	18e0001c 	xori	r3,r3,32768
 4000850:	18e00004 	addi	r3,r3,-32768
                               bmp->biWidth, //long src_active_width,
                               bmp->biHeight, // long src_active_height,
                               bmp->biWidth, //long src_line_width,
                               bmp->data, //void *dest_ptr,
                               bmp->biWidth  );  //long dest_line_width
 4000854:	d8c00115 	stw	r3,4(sp)
 4000858:	d8800015 	stw	r2,0(sp)
 400085c:	40011080 	call	4001108 <_Z21copy_pix_map_24_to_16PvlllS_l>
  
      }
    }
    if( output_bits_per_pixel == 24 )
 4000860:	e0bfff17 	ldw	r2,-4(fp)
 4000864:	10800618 	cmpnei	r2,r2,24
 4000868:	10003e1e 	bne	r2,zero,4000964 <_Z13load_gimp_bmpP17gimp_image_structP13bitmap_structi+0x2cc>
    {
      if( gimp_image->bytes_per_pixel == 4 )
 400086c:	e0bffd17 	ldw	r2,-12(fp)
 4000870:	10800217 	ldw	r2,8(r2)
 4000874:	10800118 	cmpnei	r2,r2,4
 4000878:	10001b1e 	bne	r2,zero,40008e8 <_Z13load_gimp_bmpP17gimp_image_structP13bitmap_structi+0x250>
      {
        copy_pix_map_32_to_24( gimp_image->pixel_data, //void *src_ptr,
 400087c:	e0bffd17 	ldw	r2,-12(fp)
 4000880:	11000317 	ldw	r4,12(r2)
                               bmp->biWidth, //long src_active_width,
 4000884:	e0bffe17 	ldw	r2,-8(fp)
 4000888:	1080000b 	ldhu	r2,0(r2)
    }
    if( output_bits_per_pixel == 24 )
    {
      if( gimp_image->bytes_per_pixel == 4 )
      {
        copy_pix_map_32_to_24( gimp_image->pixel_data, //void *src_ptr,
 400088c:	117fffcc 	andi	r5,r2,65535
 4000890:	2960001c 	xori	r5,r5,32768
 4000894:	29600004 	addi	r5,r5,-32768
                               bmp->biWidth, //long src_active_width,
                               bmp->biHeight, // long src_active_height,
 4000898:	e0bffe17 	ldw	r2,-8(fp)
 400089c:	1080008b 	ldhu	r2,2(r2)
    }
    if( output_bits_per_pixel == 24 )
    {
      if( gimp_image->bytes_per_pixel == 4 )
      {
        copy_pix_map_32_to_24( gimp_image->pixel_data, //void *src_ptr,
 40008a0:	11bfffcc 	andi	r6,r2,65535
 40008a4:	31a0001c 	xori	r6,r6,32768
 40008a8:	31a00004 	addi	r6,r6,-32768
                               bmp->biWidth, //long src_active_width,
                               bmp->biHeight, // long src_active_height,
                               bmp->biWidth, //long src_line_width,
 40008ac:	e0bffe17 	ldw	r2,-8(fp)
 40008b0:	1080000b 	ldhu	r2,0(r2)
    }
    if( output_bits_per_pixel == 24 )
    {
      if( gimp_image->bytes_per_pixel == 4 )
      {
        copy_pix_map_32_to_24( gimp_image->pixel_data, //void *src_ptr,
 40008b4:	11ffffcc 	andi	r7,r2,65535
 40008b8:	39e0001c 	xori	r7,r7,32768
 40008bc:	39e00004 	addi	r7,r7,-32768
                               bmp->biWidth, //long src_active_width,
                               bmp->biHeight, // long src_active_height,
                               bmp->biWidth, //long src_line_width,
                               bmp->data, //void *dest_ptr,
 40008c0:	e0bffe17 	ldw	r2,-8(fp)
 40008c4:	10800317 	ldw	r2,12(r2)
                               bmp->biWidth  );  //long dest_line_width
 40008c8:	e0fffe17 	ldw	r3,-8(fp)
 40008cc:	18c0000b 	ldhu	r3,0(r3)
    }
    if( output_bits_per_pixel == 24 )
    {
      if( gimp_image->bytes_per_pixel == 4 )
      {
        copy_pix_map_32_to_24( gimp_image->pixel_data, //void *src_ptr,
 40008d0:	18ffffcc 	andi	r3,r3,65535
 40008d4:	18e0001c 	xori	r3,r3,32768
 40008d8:	18e00004 	addi	r3,r3,-32768
                               bmp->biWidth, //long src_active_width,
                               bmp->biHeight, // long src_active_height,
                               bmp->biWidth, //long src_line_width,
                               bmp->data, //void *dest_ptr,
                               bmp->biWidth  );  //long dest_line_width
 40008dc:	d8c00115 	stw	r3,4(sp)
 40008e0:	d8800015 	stw	r2,0(sp)
 40008e4:	4000bc40 	call	4000bc4 <_Z21copy_pix_map_32_to_24PvlllS_l>
      }
      if( gimp_image->bytes_per_pixel == 3 )
 40008e8:	e0bffd17 	ldw	r2,-12(fp)
 40008ec:	10800217 	ldw	r2,8(r2)
 40008f0:	108000d8 	cmpnei	r2,r2,3
 40008f4:	10001b1e 	bne	r2,zero,4000964 <_Z13load_gimp_bmpP17gimp_image_structP13bitmap_structi+0x2cc>
      {
        copy_pix_map_24_to_24( gimp_image->pixel_data, //void *src_ptr,
 40008f8:	e0bffd17 	ldw	r2,-12(fp)
 40008fc:	11000317 	ldw	r4,12(r2)
                               bmp->biWidth, //long src_active_width,
 4000900:	e0bffe17 	ldw	r2,-8(fp)
 4000904:	1080000b 	ldhu	r2,0(r2)
                               bmp->data, //void *dest_ptr,
                               bmp->biWidth  );  //long dest_line_width
      }
      if( gimp_image->bytes_per_pixel == 3 )
      {
        copy_pix_map_24_to_24( gimp_image->pixel_data, //void *src_ptr,
 4000908:	117fffcc 	andi	r5,r2,65535
 400090c:	2960001c 	xori	r5,r5,32768
 4000910:	29600004 	addi	r5,r5,-32768
                               bmp->biWidth, //long src_active_width,
                               bmp->biHeight, // long src_active_height,
 4000914:	e0bffe17 	ldw	r2,-8(fp)
 4000918:	1080008b 	ldhu	r2,2(r2)
                               bmp->data, //void *dest_ptr,
                               bmp->biWidth  );  //long dest_line_width
      }
      if( gimp_image->bytes_per_pixel == 3 )
      {
        copy_pix_map_24_to_24( gimp_image->pixel_data, //void *src_ptr,
 400091c:	11bfffcc 	andi	r6,r2,65535
 4000920:	31a0001c 	xori	r6,r6,32768
 4000924:	31a00004 	addi	r6,r6,-32768
                               bmp->biWidth, //long src_active_width,
                               bmp->biHeight, // long src_active_height,
                               bmp->biWidth, //long src_line_width,
 4000928:	e0bffe17 	ldw	r2,-8(fp)
 400092c:	1080000b 	ldhu	r2,0(r2)
                               bmp->data, //void *dest_ptr,
                               bmp->biWidth  );  //long dest_line_width
      }
      if( gimp_image->bytes_per_pixel == 3 )
      {
        copy_pix_map_24_to_24( gimp_image->pixel_data, //void *src_ptr,
 4000930:	11ffffcc 	andi	r7,r2,65535
 4000934:	39e0001c 	xori	r7,r7,32768
 4000938:	39e00004 	addi	r7,r7,-32768
                               bmp->biWidth, //long src_active_width,
                               bmp->biHeight, // long src_active_height,
                               bmp->biWidth, //long src_line_width,
                               bmp->data, //void *dest_ptr,
 400093c:	e0bffe17 	ldw	r2,-8(fp)
 4000940:	10800317 	ldw	r2,12(r2)
                               bmp->biWidth  );  //long dest_line_width
 4000944:	e0fffe17 	ldw	r3,-8(fp)
 4000948:	18c0000b 	ldhu	r3,0(r3)
                               bmp->data, //void *dest_ptr,
                               bmp->biWidth  );  //long dest_line_width
      }
      if( gimp_image->bytes_per_pixel == 3 )
      {
        copy_pix_map_24_to_24( gimp_image->pixel_data, //void *src_ptr,
 400094c:	18ffffcc 	andi	r3,r3,65535
 4000950:	18e0001c 	xori	r3,r3,32768
 4000954:	18e00004 	addi	r3,r3,-32768
                               bmp->biWidth, //long src_active_width,
                               bmp->biHeight, // long src_active_height,
                               bmp->biWidth, //long src_line_width,
                               bmp->data, //void *dest_ptr,
                               bmp->biWidth  );  //long dest_line_width
 4000958:	d8c00115 	stw	r3,4(sp)
 400095c:	d8800015 	stw	r2,0(sp)
 4000960:	4000fc00 	call	4000fc0 <_Z21copy_pix_map_24_to_24PvlllS_l>
  
      }
    }
    if( output_bits_per_pixel == 32 )
 4000964:	e0bfff17 	ldw	r2,-4(fp)
 4000968:	10800818 	cmpnei	r2,r2,32
 400096c:	10003e1e 	bne	r2,zero,4000a68 <_Z13load_gimp_bmpP17gimp_image_structP13bitmap_structi+0x3d0>
    {
      if( gimp_image->bytes_per_pixel == 4 )
 4000970:	e0bffd17 	ldw	r2,-12(fp)
 4000974:	10800217 	ldw	r2,8(r2)
 4000978:	10800118 	cmpnei	r2,r2,4
 400097c:	10001b1e 	bne	r2,zero,40009ec <_Z13load_gimp_bmpP17gimp_image_structP13bitmap_structi+0x354>
      {
        copy_pix_map_32_to_32( gimp_image->pixel_data, //void *src_ptr,
 4000980:	e0bffd17 	ldw	r2,-12(fp)
 4000984:	11000317 	ldw	r4,12(r2)
                               bmp->biWidth, //long src_active_width,
 4000988:	e0bffe17 	ldw	r2,-8(fp)
 400098c:	1080000b 	ldhu	r2,0(r2)
    }
    if( output_bits_per_pixel == 32 )
    {
      if( gimp_image->bytes_per_pixel == 4 )
      {
        copy_pix_map_32_to_32( gimp_image->pixel_data, //void *src_ptr,
 4000990:	117fffcc 	andi	r5,r2,65535
 4000994:	2960001c 	xori	r5,r5,32768
 4000998:	29600004 	addi	r5,r5,-32768
                               bmp->biWidth, //long src_active_width,
                               bmp->biHeight, // long src_active_height,
 400099c:	e0bffe17 	ldw	r2,-8(fp)
 40009a0:	1080008b 	ldhu	r2,2(r2)
    }
    if( output_bits_per_pixel == 32 )
    {
      if( gimp_image->bytes_per_pixel == 4 )
      {
        copy_pix_map_32_to_32( gimp_image->pixel_data, //void *src_ptr,
 40009a4:	11bfffcc 	andi	r6,r2,65535
 40009a8:	31a0001c 	xori	r6,r6,32768
 40009ac:	31a00004 	addi	r6,r6,-32768
                               bmp->biWidth, //long src_active_width,
                               bmp->biHeight, // long src_active_height,
                               bmp->biWidth, //long src_line_width,
 40009b0:	e0bffe17 	ldw	r2,-8(fp)
 40009b4:	1080000b 	ldhu	r2,0(r2)
    }
    if( output_bits_per_pixel == 32 )
    {
      if( gimp_image->bytes_per_pixel == 4 )
      {
        copy_pix_map_32_to_32( gimp_image->pixel_data, //void *src_ptr,
 40009b8:	11ffffcc 	andi	r7,r2,65535
 40009bc:	39e0001c 	xori	r7,r7,32768
 40009c0:	39e00004 	addi	r7,r7,-32768
                               bmp->biWidth, //long src_active_width,
                               bmp->biHeight, // long src_active_height,
                               bmp->biWidth, //long src_line_width,
                               bmp->data, //void *dest_ptr,
 40009c4:	e0bffe17 	ldw	r2,-8(fp)
 40009c8:	10800317 	ldw	r2,12(r2)
                               bmp->biWidth  );  //long dest_line_width
 40009cc:	e0fffe17 	ldw	r3,-8(fp)
 40009d0:	18c0000b 	ldhu	r3,0(r3)
    }
    if( output_bits_per_pixel == 32 )
    {
      if( gimp_image->bytes_per_pixel == 4 )
      {
        copy_pix_map_32_to_32( gimp_image->pixel_data, //void *src_ptr,
 40009d4:	18ffffcc 	andi	r3,r3,65535
 40009d8:	18e0001c 	xori	r3,r3,32768
 40009dc:	18e00004 	addi	r3,r3,-32768
                               bmp->biWidth, //long src_active_width,
                               bmp->biHeight, // long src_active_height,
                               bmp->biWidth, //long src_line_width,
                               bmp->data, //void *dest_ptr,
                               bmp->biWidth  );  //long dest_line_width
 40009e0:	d8c00115 	stw	r3,4(sp)
 40009e4:	d8800015 	stw	r2,0(sp)
 40009e8:	4000abc0 	call	4000abc <_Z21copy_pix_map_32_to_32PvlllS_l>
      }
      if( gimp_image->bytes_per_pixel == 3 )
 40009ec:	e0bffd17 	ldw	r2,-12(fp)
 40009f0:	10800217 	ldw	r2,8(r2)
 40009f4:	108000d8 	cmpnei	r2,r2,3
 40009f8:	10001b1e 	bne	r2,zero,4000a68 <_Z13load_gimp_bmpP17gimp_image_structP13bitmap_structi+0x3d0>
      {
        copy_pix_map_24_to_32( gimp_image->pixel_data, //void *src_ptr,
 40009fc:	e0bffd17 	ldw	r2,-12(fp)
 4000a00:	11000317 	ldw	r4,12(r2)
                               bmp->biWidth, //long src_active_width,
 4000a04:	e0bffe17 	ldw	r2,-8(fp)
 4000a08:	1080000b 	ldhu	r2,0(r2)
                               bmp->data, //void *dest_ptr,
                               bmp->biWidth  );  //long dest_line_width
      }
      if( gimp_image->bytes_per_pixel == 3 )
      {
        copy_pix_map_24_to_32( gimp_image->pixel_data, //void *src_ptr,
 4000a0c:	117fffcc 	andi	r5,r2,65535
 4000a10:	2960001c 	xori	r5,r5,32768
 4000a14:	29600004 	addi	r5,r5,-32768
                               bmp->biWidth, //long src_active_width,
                               bmp->biHeight, // long src_active_height,
 4000a18:	e0bffe17 	ldw	r2,-8(fp)
 4000a1c:	1080008b 	ldhu	r2,2(r2)
                               bmp->data, //void *dest_ptr,
                               bmp->biWidth  );  //long dest_line_width
      }
      if( gimp_image->bytes_per_pixel == 3 )
      {
        copy_pix_map_24_to_32( gimp_image->pixel_data, //void *src_ptr,
 4000a20:	11bfffcc 	andi	r6,r2,65535
 4000a24:	31a0001c 	xori	r6,r6,32768
 4000a28:	31a00004 	addi	r6,r6,-32768
                               bmp->biWidth, //long src_active_width,
                               bmp->biHeight, // long src_active_height,
                               bmp->biWidth, //long src_line_width,
 4000a2c:	e0bffe17 	ldw	r2,-8(fp)
 4000a30:	1080000b 	ldhu	r2,0(r2)
                               bmp->data, //void *dest_ptr,
                               bmp->biWidth  );  //long dest_line_width
      }
      if( gimp_image->bytes_per_pixel == 3 )
      {
        copy_pix_map_24_to_32( gimp_image->pixel_data, //void *src_ptr,
 4000a34:	11ffffcc 	andi	r7,r2,65535
 4000a38:	39e0001c 	xori	r7,r7,32768
 4000a3c:	39e00004 	addi	r7,r7,-32768
                               bmp->biWidth, //long src_active_width,
                               bmp->biHeight, // long src_active_height,
                               bmp->biWidth, //long src_line_width,
                               bmp->data, //void *dest_ptr,
 4000a40:	e0bffe17 	ldw	r2,-8(fp)
 4000a44:	10800317 	ldw	r2,12(r2)
                               bmp->biWidth  );  //long dest_line_width
 4000a48:	e0fffe17 	ldw	r3,-8(fp)
 4000a4c:	18c0000b 	ldhu	r3,0(r3)
                               bmp->data, //void *dest_ptr,
                               bmp->biWidth  );  //long dest_line_width
      }
      if( gimp_image->bytes_per_pixel == 3 )
      {
        copy_pix_map_24_to_32( gimp_image->pixel_data, //void *src_ptr,
 4000a50:	18ffffcc 	andi	r3,r3,65535
 4000a54:	18e0001c 	xori	r3,r3,32768
 4000a58:	18e00004 	addi	r3,r3,-32768
                               bmp->biWidth, //long src_active_width,
                               bmp->biHeight, // long src_active_height,
                               bmp->biWidth, //long src_line_width,
                               bmp->data, //void *dest_ptr,
                               bmp->biWidth  );  //long dest_line_width
 4000a5c:	d8c00115 	stw	r3,4(sp)
 4000a60:	d8800015 	stw	r2,0(sp)
 4000a64:	4000e500 	call	4000e50 <_Z21copy_pix_map_24_to_32PvlllS_l>
  
      }
    }
  }
  
  return( ret_code );
 4000a68:	e0bffa17 	ldw	r2,-24(fp)
}
 4000a6c:	e037883a 	mov	sp,fp
 4000a70:	dfc00117 	ldw	ra,4(sp)
 4000a74:	df000017 	ldw	fp,0(sp)
 4000a78:	dec00204 	addi	sp,sp,8
 4000a7c:	f800283a 	ret

04000a80 <_Z18free_gimp_bmp_dataP13bitmap_struct>:

void free_gimp_bmp_data( bitmap_struct *bmp )
{
 4000a80:	defffd04 	addi	sp,sp,-12
 4000a84:	dfc00215 	stw	ra,8(sp)
 4000a88:	df000115 	stw	fp,4(sp)
 4000a8c:	df000104 	addi	fp,sp,4
 4000a90:	e13fff15 	stw	r4,-4(fp)
  free( bmp->data );
 4000a94:	e0bfff17 	ldw	r2,-4(fp)
 4000a98:	10800317 	ldw	r2,12(r2)
 4000a9c:	1009883a 	mov	r4,r2
 4000aa0:	400dec80 	call	400dec8 <free>
}
 4000aa4:	0001883a 	nop
 4000aa8:	e037883a 	mov	sp,fp
 4000aac:	dfc00117 	ldw	ra,4(sp)
 4000ab0:	df000017 	ldw	fp,0(sp)
 4000ab4:	dec00204 	addi	sp,sp,8
 4000ab8:	f800283a 	ret

04000abc <_Z21copy_pix_map_32_to_32PvlllS_l>:
                    long src_active_height,
                    long src_line_width,
                    void *dest_ptr,
                    long dest_line_width
                  )
{
 4000abc:	defff504 	addi	sp,sp,-44
 4000ac0:	df000a15 	stw	fp,40(sp)
 4000ac4:	df000a04 	addi	fp,sp,40
 4000ac8:	e13ffc15 	stw	r4,-16(fp)
 4000acc:	e17ffd15 	stw	r5,-12(fp)
 4000ad0:	e1bffe15 	stw	r6,-8(fp)
 4000ad4:	e1ffff15 	stw	r7,-4(fp)
  int src_row, src_col;
  void *src_line_ptr, *dest_line_ptr;
  long src_increment, dest_increment;
  
  src_increment = src_line_width + src_line_width + src_line_width + src_line_width;
 4000ad8:	e0ffff17 	ldw	r3,-4(fp)
 4000adc:	e0bfff17 	ldw	r2,-4(fp)
 4000ae0:	1887883a 	add	r3,r3,r2
 4000ae4:	e0bfff17 	ldw	r2,-4(fp)
 4000ae8:	1887883a 	add	r3,r3,r2
 4000aec:	e0bfff17 	ldw	r2,-4(fp)
 4000af0:	1885883a 	add	r2,r3,r2
 4000af4:	e0bffa15 	stw	r2,-24(fp)
  dest_increment = dest_line_width + dest_line_width + dest_line_width + dest_line_width;
 4000af8:	e0c00217 	ldw	r3,8(fp)
 4000afc:	e0800217 	ldw	r2,8(fp)
 4000b00:	1887883a 	add	r3,r3,r2
 4000b04:	e0800217 	ldw	r2,8(fp)
 4000b08:	1887883a 	add	r3,r3,r2
 4000b0c:	e0800217 	ldw	r2,8(fp)
 4000b10:	1885883a 	add	r2,r3,r2
 4000b14:	e0bffb15 	stw	r2,-20(fp)
  
  for( src_row = 0 ; src_row < src_active_height ; src_row++ )
 4000b18:	e03ff615 	stw	zero,-40(fp)
 4000b1c:	e0fff617 	ldw	r3,-40(fp)
 4000b20:	e0bffe17 	ldw	r2,-8(fp)
 4000b24:	1880220e 	bge	r3,r2,4000bb0 <_Z21copy_pix_map_32_to_32PvlllS_l+0xf4>
  {
    src_line_ptr = src_ptr;
 4000b28:	e0bffc17 	ldw	r2,-16(fp)
 4000b2c:	e0bff815 	stw	r2,-32(fp)
    dest_line_ptr = dest_ptr;
 4000b30:	e0800117 	ldw	r2,4(fp)
 4000b34:	e0bff915 	stw	r2,-28(fp)
    for( src_col = 0 ; src_col < src_active_width ; src_col++ )
 4000b38:	e03ff715 	stw	zero,-36(fp)
 4000b3c:	e0fff717 	ldw	r3,-36(fp)
 4000b40:	e0bffd17 	ldw	r2,-12(fp)
 4000b44:	18800e0e 	bge	r3,r2,4000b80 <_Z21copy_pix_map_32_to_32PvlllS_l+0xc4>
    {
      *(unsigned long *)(dest_line_ptr) = *(unsigned long *)(src_line_ptr);
 4000b48:	e0bff817 	ldw	r2,-32(fp)
 4000b4c:	10c00017 	ldw	r3,0(r2)
 4000b50:	e0bff917 	ldw	r2,-28(fp)
 4000b54:	10c00015 	stw	r3,0(r2)
      src_line_ptr += 4;
 4000b58:	e0bff817 	ldw	r2,-32(fp)
 4000b5c:	10800104 	addi	r2,r2,4
 4000b60:	e0bff815 	stw	r2,-32(fp)
      dest_line_ptr += 4;
 4000b64:	e0bff917 	ldw	r2,-28(fp)
 4000b68:	10800104 	addi	r2,r2,4
 4000b6c:	e0bff915 	stw	r2,-28(fp)
  
  for( src_row = 0 ; src_row < src_active_height ; src_row++ )
  {
    src_line_ptr = src_ptr;
    dest_line_ptr = dest_ptr;
    for( src_col = 0 ; src_col < src_active_width ; src_col++ )
 4000b70:	e0bff717 	ldw	r2,-36(fp)
 4000b74:	10800044 	addi	r2,r2,1
 4000b78:	e0bff715 	stw	r2,-36(fp)
 4000b7c:	003fef06 	br	4000b3c <__alt_mem_epcs_flash_controller_0+0xfafffb3c>
    {
      *(unsigned long *)(dest_line_ptr) = *(unsigned long *)(src_line_ptr);
      src_line_ptr += 4;
      dest_line_ptr += 4;
    }
    src_ptr += src_increment;
 4000b80:	e0bffa17 	ldw	r2,-24(fp)
 4000b84:	e0fffc17 	ldw	r3,-16(fp)
 4000b88:	1885883a 	add	r2,r3,r2
 4000b8c:	e0bffc15 	stw	r2,-16(fp)
    dest_ptr += dest_increment;
 4000b90:	e0bffb17 	ldw	r2,-20(fp)
 4000b94:	e0c00117 	ldw	r3,4(fp)
 4000b98:	1885883a 	add	r2,r3,r2
 4000b9c:	e0800115 	stw	r2,4(fp)
  long src_increment, dest_increment;
  
  src_increment = src_line_width + src_line_width + src_line_width + src_line_width;
  dest_increment = dest_line_width + dest_line_width + dest_line_width + dest_line_width;
  
  for( src_row = 0 ; src_row < src_active_height ; src_row++ )
 4000ba0:	e0bff617 	ldw	r2,-40(fp)
 4000ba4:	10800044 	addi	r2,r2,1
 4000ba8:	e0bff615 	stw	r2,-40(fp)
 4000bac:	003fdb06 	br	4000b1c <__alt_mem_epcs_flash_controller_0+0xfafffb1c>
      dest_line_ptr += 4;
    }
    src_ptr += src_increment;
    dest_ptr += dest_increment;
  }
}
 4000bb0:	0001883a 	nop
 4000bb4:	e037883a 	mov	sp,fp
 4000bb8:	df000017 	ldw	fp,0(sp)
 4000bbc:	dec00104 	addi	sp,sp,4
 4000bc0:	f800283a 	ret

04000bc4 <_Z21copy_pix_map_32_to_24PvlllS_l>:
                    long src_active_height,
                    long src_line_width,
                    void *dest_ptr,
                    long dest_line_width
                  )
{
 4000bc4:	defff504 	addi	sp,sp,-44
 4000bc8:	df000a15 	stw	fp,40(sp)
 4000bcc:	df000a04 	addi	fp,sp,40
 4000bd0:	e13ffc15 	stw	r4,-16(fp)
 4000bd4:	e17ffd15 	stw	r5,-12(fp)
 4000bd8:	e1bffe15 	stw	r6,-8(fp)
 4000bdc:	e1ffff15 	stw	r7,-4(fp)
  int src_row, src_col;
  void *src_line_ptr, *dest_line_ptr;
  long src_increment, dest_increment;
  
  src_increment = src_line_width + src_line_width + src_line_width + src_line_width;
 4000be0:	e0ffff17 	ldw	r3,-4(fp)
 4000be4:	e0bfff17 	ldw	r2,-4(fp)
 4000be8:	1887883a 	add	r3,r3,r2
 4000bec:	e0bfff17 	ldw	r2,-4(fp)
 4000bf0:	1887883a 	add	r3,r3,r2
 4000bf4:	e0bfff17 	ldw	r2,-4(fp)
 4000bf8:	1885883a 	add	r2,r3,r2
 4000bfc:	e0bffa15 	stw	r2,-24(fp)
  dest_increment = dest_line_width + dest_line_width + dest_line_width;
 4000c00:	e0c00217 	ldw	r3,8(fp)
 4000c04:	e0800217 	ldw	r2,8(fp)
 4000c08:	1887883a 	add	r3,r3,r2
 4000c0c:	e0800217 	ldw	r2,8(fp)
 4000c10:	1885883a 	add	r2,r3,r2
 4000c14:	e0bffb15 	stw	r2,-20(fp)

  for( src_row = 0 ; src_row < src_active_height ; src_row++ )
 4000c18:	e03ff615 	stw	zero,-40(fp)
 4000c1c:	e0fff617 	ldw	r3,-40(fp)
 4000c20:	e0bffe17 	ldw	r2,-8(fp)
 4000c24:	1880360e 	bge	r3,r2,4000d00 <_Z21copy_pix_map_32_to_24PvlllS_l+0x13c>
  {
    src_line_ptr = src_ptr;
 4000c28:	e0bffc17 	ldw	r2,-16(fp)
 4000c2c:	e0bff815 	stw	r2,-32(fp)
    dest_line_ptr = dest_ptr;
 4000c30:	e0800117 	ldw	r2,4(fp)
 4000c34:	e0bff915 	stw	r2,-28(fp)
    for( src_col = 0 ; src_col < src_active_width ; src_col++ )
 4000c38:	e03ff715 	stw	zero,-36(fp)
 4000c3c:	e0fff717 	ldw	r3,-36(fp)
 4000c40:	e0bffd17 	ldw	r2,-12(fp)
 4000c44:	1880220e 	bge	r3,r2,4000cd0 <_Z21copy_pix_map_32_to_24PvlllS_l+0x10c>
    {
      *(unsigned char *)(dest_line_ptr) = *(unsigned char *)(src_line_ptr);
 4000c48:	e0bff817 	ldw	r2,-32(fp)
 4000c4c:	10c00003 	ldbu	r3,0(r2)
 4000c50:	e0bff917 	ldw	r2,-28(fp)
 4000c54:	10c00005 	stb	r3,0(r2)
      src_line_ptr += 1;
 4000c58:	e0bff817 	ldw	r2,-32(fp)
 4000c5c:	10800044 	addi	r2,r2,1
 4000c60:	e0bff815 	stw	r2,-32(fp)
      dest_line_ptr += 1;
 4000c64:	e0bff917 	ldw	r2,-28(fp)
 4000c68:	10800044 	addi	r2,r2,1
 4000c6c:	e0bff915 	stw	r2,-28(fp)
      *(unsigned char *)(dest_line_ptr) = *(unsigned char *)(src_line_ptr);
 4000c70:	e0bff817 	ldw	r2,-32(fp)
 4000c74:	10c00003 	ldbu	r3,0(r2)
 4000c78:	e0bff917 	ldw	r2,-28(fp)
 4000c7c:	10c00005 	stb	r3,0(r2)
      src_line_ptr += 1;
 4000c80:	e0bff817 	ldw	r2,-32(fp)
 4000c84:	10800044 	addi	r2,r2,1
 4000c88:	e0bff815 	stw	r2,-32(fp)
      dest_line_ptr += 1;
 4000c8c:	e0bff917 	ldw	r2,-28(fp)
 4000c90:	10800044 	addi	r2,r2,1
 4000c94:	e0bff915 	stw	r2,-28(fp)
      *(unsigned char *)(dest_line_ptr) = *(unsigned char *)(src_line_ptr);
 4000c98:	e0bff817 	ldw	r2,-32(fp)
 4000c9c:	10c00003 	ldbu	r3,0(r2)
 4000ca0:	e0bff917 	ldw	r2,-28(fp)
 4000ca4:	10c00005 	stb	r3,0(r2)
      src_line_ptr += 2;
 4000ca8:	e0bff817 	ldw	r2,-32(fp)
 4000cac:	10800084 	addi	r2,r2,2
 4000cb0:	e0bff815 	stw	r2,-32(fp)
      dest_line_ptr += 1;
 4000cb4:	e0bff917 	ldw	r2,-28(fp)
 4000cb8:	10800044 	addi	r2,r2,1
 4000cbc:	e0bff915 	stw	r2,-28(fp)

  for( src_row = 0 ; src_row < src_active_height ; src_row++ )
  {
    src_line_ptr = src_ptr;
    dest_line_ptr = dest_ptr;
    for( src_col = 0 ; src_col < src_active_width ; src_col++ )
 4000cc0:	e0bff717 	ldw	r2,-36(fp)
 4000cc4:	10800044 	addi	r2,r2,1
 4000cc8:	e0bff715 	stw	r2,-36(fp)
 4000ccc:	003fdb06 	br	4000c3c <__alt_mem_epcs_flash_controller_0+0xfafffc3c>
      dest_line_ptr += 1;
      *(unsigned char *)(dest_line_ptr) = *(unsigned char *)(src_line_ptr);
      src_line_ptr += 2;
      dest_line_ptr += 1;
    }
    src_ptr += src_increment;
 4000cd0:	e0bffa17 	ldw	r2,-24(fp)
 4000cd4:	e0fffc17 	ldw	r3,-16(fp)
 4000cd8:	1885883a 	add	r2,r3,r2
 4000cdc:	e0bffc15 	stw	r2,-16(fp)
    dest_ptr += dest_increment;
 4000ce0:	e0bffb17 	ldw	r2,-20(fp)
 4000ce4:	e0c00117 	ldw	r3,4(fp)
 4000ce8:	1885883a 	add	r2,r3,r2
 4000cec:	e0800115 	stw	r2,4(fp)
  long src_increment, dest_increment;
  
  src_increment = src_line_width + src_line_width + src_line_width + src_line_width;
  dest_increment = dest_line_width + dest_line_width + dest_line_width;

  for( src_row = 0 ; src_row < src_active_height ; src_row++ )
 4000cf0:	e0bff617 	ldw	r2,-40(fp)
 4000cf4:	10800044 	addi	r2,r2,1
 4000cf8:	e0bff615 	stw	r2,-40(fp)
 4000cfc:	003fc706 	br	4000c1c <__alt_mem_epcs_flash_controller_0+0xfafffc1c>
      dest_line_ptr += 1;
    }
    src_ptr += src_increment;
    dest_ptr += dest_increment;
  }
}
 4000d00:	0001883a 	nop
 4000d04:	e037883a 	mov	sp,fp
 4000d08:	df000017 	ldw	fp,0(sp)
 4000d0c:	dec00104 	addi	sp,sp,4
 4000d10:	f800283a 	ret

04000d14 <_Z21copy_pix_map_32_to_16PvlllS_l>:
                    long src_active_height,
                    long src_line_width,
                    void *dest_ptr,
                    long dest_line_width
                  )
{
 4000d14:	defff304 	addi	sp,sp,-52
 4000d18:	df000c15 	stw	fp,48(sp)
 4000d1c:	df000c04 	addi	fp,sp,48
 4000d20:	e13ffc15 	stw	r4,-16(fp)
 4000d24:	e17ffd15 	stw	r5,-12(fp)
 4000d28:	e1bffe15 	stw	r6,-8(fp)
 4000d2c:	e1ffff15 	stw	r7,-4(fp)
  unsigned long next_long_pixel;
  unsigned short next_short_pixel;
  void *src_line_ptr, *dest_line_ptr;
  long src_increment, dest_increment;
  
  src_increment = src_line_width + src_line_width + src_line_width + src_line_width;
 4000d30:	e0ffff17 	ldw	r3,-4(fp)
 4000d34:	e0bfff17 	ldw	r2,-4(fp)
 4000d38:	1887883a 	add	r3,r3,r2
 4000d3c:	e0bfff17 	ldw	r2,-4(fp)
 4000d40:	1887883a 	add	r3,r3,r2
 4000d44:	e0bfff17 	ldw	r2,-4(fp)
 4000d48:	1885883a 	add	r2,r3,r2
 4000d4c:	e0bff815 	stw	r2,-32(fp)
  dest_increment = dest_line_width + dest_line_width;
 4000d50:	e0c00217 	ldw	r3,8(fp)
 4000d54:	e0800217 	ldw	r2,8(fp)
 4000d58:	1885883a 	add	r2,r3,r2
 4000d5c:	e0bff915 	stw	r2,-28(fp)
  
  for( src_row = 0 ; src_row < src_active_height ; src_row++ )
 4000d60:	e03ff415 	stw	zero,-48(fp)
 4000d64:	e0fff417 	ldw	r3,-48(fp)
 4000d68:	e0bffe17 	ldw	r2,-8(fp)
 4000d6c:	1880330e 	bge	r3,r2,4000e3c <_Z21copy_pix_map_32_to_16PvlllS_l+0x128>
  {
    src_line_ptr = src_ptr;
 4000d70:	e0bffc17 	ldw	r2,-16(fp)
 4000d74:	e0bff615 	stw	r2,-40(fp)
    dest_line_ptr = dest_ptr;
 4000d78:	e0800117 	ldw	r2,4(fp)
 4000d7c:	e0bff715 	stw	r2,-36(fp)
    for( src_col = 0 ; src_col < src_active_width ; src_col++ )
 4000d80:	e03ff515 	stw	zero,-44(fp)
 4000d84:	e0fff517 	ldw	r3,-44(fp)
 4000d88:	e0bffd17 	ldw	r2,-12(fp)
 4000d8c:	18801f0e 	bge	r3,r2,4000e0c <_Z21copy_pix_map_32_to_16PvlllS_l+0xf8>
    {
      next_long_pixel = *(unsigned long *)(src_line_ptr);
 4000d90:	e0bff617 	ldw	r2,-40(fp)
 4000d94:	10800017 	ldw	r2,0(r2)
 4000d98:	e0bffa15 	stw	r2,-24(fp)
      src_line_ptr += 4;
 4000d9c:	e0bff617 	ldw	r2,-40(fp)
 4000da0:	10800104 	addi	r2,r2,4
 4000da4:	e0bff615 	stw	r2,-40(fp)

      next_short_pixel =  (((next_long_pixel >> 3) & 0x1f) << 11) |
 4000da8:	e0bffa17 	ldw	r2,-24(fp)
 4000dac:	1004d0fa 	srli	r2,r2,3
                          (((next_long_pixel >> 10) & 0x3f) << 5) |
                          (((next_long_pixel >> 19) & 0x1f) << 0) ;
 4000db0:	100492fa 	slli	r2,r2,11
 4000db4:	1007883a 	mov	r3,r2
    {
      next_long_pixel = *(unsigned long *)(src_line_ptr);
      src_line_ptr += 4;

      next_short_pixel =  (((next_long_pixel >> 3) & 0x1f) << 11) |
                          (((next_long_pixel >> 10) & 0x3f) << 5) |
 4000db8:	e0bffa17 	ldw	r2,-24(fp)
 4000dbc:	1004d2ba 	srli	r2,r2,10
                          (((next_long_pixel >> 19) & 0x1f) << 0) ;
 4000dc0:	10800fcc 	andi	r2,r2,63
 4000dc4:	1004917a 	slli	r2,r2,5
 4000dc8:	1884b03a 	or	r2,r3,r2
 4000dcc:	1007883a 	mov	r3,r2
 4000dd0:	e0bffa17 	ldw	r2,-24(fp)
 4000dd4:	1004d4fa 	srli	r2,r2,19
 4000dd8:	108007cc 	andi	r2,r2,31
 4000ddc:	1884b03a 	or	r2,r3,r2
 4000de0:	e0bffb0d 	sth	r2,-20(fp)

      *(unsigned short *)(dest_line_ptr) = next_short_pixel;
 4000de4:	e0bff717 	ldw	r2,-36(fp)
 4000de8:	e0fffb0b 	ldhu	r3,-20(fp)
 4000dec:	10c0000d 	sth	r3,0(r2)
      dest_line_ptr += 2;
 4000df0:	e0bff717 	ldw	r2,-36(fp)
 4000df4:	10800084 	addi	r2,r2,2
 4000df8:	e0bff715 	stw	r2,-36(fp)
  
  for( src_row = 0 ; src_row < src_active_height ; src_row++ )
  {
    src_line_ptr = src_ptr;
    dest_line_ptr = dest_ptr;
    for( src_col = 0 ; src_col < src_active_width ; src_col++ )
 4000dfc:	e0bff517 	ldw	r2,-44(fp)
 4000e00:	10800044 	addi	r2,r2,1
 4000e04:	e0bff515 	stw	r2,-44(fp)
 4000e08:	003fde06 	br	4000d84 <__alt_mem_epcs_flash_controller_0+0xfafffd84>
                          (((next_long_pixel >> 19) & 0x1f) << 0) ;

      *(unsigned short *)(dest_line_ptr) = next_short_pixel;
      dest_line_ptr += 2;
    }
    src_ptr += src_increment;
 4000e0c:	e0bff817 	ldw	r2,-32(fp)
 4000e10:	e0fffc17 	ldw	r3,-16(fp)
 4000e14:	1885883a 	add	r2,r3,r2
 4000e18:	e0bffc15 	stw	r2,-16(fp)
    dest_ptr += dest_increment;
 4000e1c:	e0bff917 	ldw	r2,-28(fp)
 4000e20:	e0c00117 	ldw	r3,4(fp)
 4000e24:	1885883a 	add	r2,r3,r2
 4000e28:	e0800115 	stw	r2,4(fp)
  long src_increment, dest_increment;
  
  src_increment = src_line_width + src_line_width + src_line_width + src_line_width;
  dest_increment = dest_line_width + dest_line_width;
  
  for( src_row = 0 ; src_row < src_active_height ; src_row++ )
 4000e2c:	e0bff417 	ldw	r2,-48(fp)
 4000e30:	10800044 	addi	r2,r2,1
 4000e34:	e0bff415 	stw	r2,-48(fp)
 4000e38:	003fca06 	br	4000d64 <__alt_mem_epcs_flash_controller_0+0xfafffd64>
      dest_line_ptr += 2;
    }
    src_ptr += src_increment;
    dest_ptr += dest_increment;
  }
}
 4000e3c:	0001883a 	nop
 4000e40:	e037883a 	mov	sp,fp
 4000e44:	df000017 	ldw	fp,0(sp)
 4000e48:	dec00104 	addi	sp,sp,4
 4000e4c:	f800283a 	ret

04000e50 <_Z21copy_pix_map_24_to_32PvlllS_l>:
                    long src_active_height,
                    long src_line_width,
                    void *dest_ptr,
                    long dest_line_width
                  )
{
 4000e50:	defff504 	addi	sp,sp,-44
 4000e54:	df000a15 	stw	fp,40(sp)
 4000e58:	df000a04 	addi	fp,sp,40
 4000e5c:	e13ffc15 	stw	r4,-16(fp)
 4000e60:	e17ffd15 	stw	r5,-12(fp)
 4000e64:	e1bffe15 	stw	r6,-8(fp)
 4000e68:	e1ffff15 	stw	r7,-4(fp)
  int src_row, src_col;
  void *src_line_ptr, *dest_line_ptr;
  long src_increment, dest_increment;
  
  src_increment = src_line_width + src_line_width + src_line_width;
 4000e6c:	e0ffff17 	ldw	r3,-4(fp)
 4000e70:	e0bfff17 	ldw	r2,-4(fp)
 4000e74:	1887883a 	add	r3,r3,r2
 4000e78:	e0bfff17 	ldw	r2,-4(fp)
 4000e7c:	1885883a 	add	r2,r3,r2
 4000e80:	e0bffa15 	stw	r2,-24(fp)
  dest_increment = dest_line_width + dest_line_width + dest_line_width + dest_line_width;
 4000e84:	e0c00217 	ldw	r3,8(fp)
 4000e88:	e0800217 	ldw	r2,8(fp)
 4000e8c:	1887883a 	add	r3,r3,r2
 4000e90:	e0800217 	ldw	r2,8(fp)
 4000e94:	1887883a 	add	r3,r3,r2
 4000e98:	e0800217 	ldw	r2,8(fp)
 4000e9c:	1885883a 	add	r2,r3,r2
 4000ea0:	e0bffb15 	stw	r2,-20(fp)
  
  for( src_row = 0 ; src_row < src_active_height ; src_row++ )
 4000ea4:	e03ff615 	stw	zero,-40(fp)
 4000ea8:	e0fff617 	ldw	r3,-40(fp)
 4000eac:	e0bffe17 	ldw	r2,-8(fp)
 4000eb0:	18803e0e 	bge	r3,r2,4000fac <_Z21copy_pix_map_24_to_32PvlllS_l+0x15c>
  {
    src_line_ptr = src_ptr;
 4000eb4:	e0bffc17 	ldw	r2,-16(fp)
 4000eb8:	e0bff815 	stw	r2,-32(fp)
    dest_line_ptr = dest_ptr;
 4000ebc:	e0800117 	ldw	r2,4(fp)
 4000ec0:	e0bff915 	stw	r2,-28(fp)
    for( src_col = 0 ; src_col < src_active_width ; src_col++ )
 4000ec4:	e03ff715 	stw	zero,-36(fp)
 4000ec8:	e0fff717 	ldw	r3,-36(fp)
 4000ecc:	e0bffd17 	ldw	r2,-12(fp)
 4000ed0:	18802a0e 	bge	r3,r2,4000f7c <_Z21copy_pix_map_24_to_32PvlllS_l+0x12c>
    {
      *(unsigned char *)(dest_line_ptr + 2)  = *(unsigned char *)(src_line_ptr);
 4000ed4:	e0bff917 	ldw	r2,-28(fp)
 4000ed8:	10800084 	addi	r2,r2,2
 4000edc:	e0fff817 	ldw	r3,-32(fp)
 4000ee0:	18c00003 	ldbu	r3,0(r3)
 4000ee4:	10c00005 	stb	r3,0(r2)
      src_line_ptr += 1;
 4000ee8:	e0bff817 	ldw	r2,-32(fp)
 4000eec:	10800044 	addi	r2,r2,1
 4000ef0:	e0bff815 	stw	r2,-32(fp)
      dest_line_ptr += 1;
 4000ef4:	e0bff917 	ldw	r2,-28(fp)
 4000ef8:	10800044 	addi	r2,r2,1
 4000efc:	e0bff915 	stw	r2,-28(fp)
      *(unsigned char *)(dest_line_ptr)  = *(unsigned char *)(src_line_ptr);
 4000f00:	e0bff817 	ldw	r2,-32(fp)
 4000f04:	10c00003 	ldbu	r3,0(r2)
 4000f08:	e0bff917 	ldw	r2,-28(fp)
 4000f0c:	10c00005 	stb	r3,0(r2)
      src_line_ptr += 1;
 4000f10:	e0bff817 	ldw	r2,-32(fp)
 4000f14:	10800044 	addi	r2,r2,1
 4000f18:	e0bff815 	stw	r2,-32(fp)
      dest_line_ptr += 1;
 4000f1c:	e0bff917 	ldw	r2,-28(fp)
 4000f20:	10800044 	addi	r2,r2,1
 4000f24:	e0bff915 	stw	r2,-28(fp)
      *(unsigned char *)(dest_line_ptr - 2)  = *(unsigned char *)(src_line_ptr);
 4000f28:	e0bff917 	ldw	r2,-28(fp)
 4000f2c:	10bfff84 	addi	r2,r2,-2
 4000f30:	e0fff817 	ldw	r3,-32(fp)
 4000f34:	18c00003 	ldbu	r3,0(r3)
 4000f38:	10c00005 	stb	r3,0(r2)
      src_line_ptr += 1;
 4000f3c:	e0bff817 	ldw	r2,-32(fp)
 4000f40:	10800044 	addi	r2,r2,1
 4000f44:	e0bff815 	stw	r2,-32(fp)
      dest_line_ptr += 1;
 4000f48:	e0bff917 	ldw	r2,-28(fp)
 4000f4c:	10800044 	addi	r2,r2,1
 4000f50:	e0bff915 	stw	r2,-28(fp)
      *(unsigned char *)(dest_line_ptr)  = 0xff;
 4000f54:	e0bff917 	ldw	r2,-28(fp)
 4000f58:	00ffffc4 	movi	r3,-1
 4000f5c:	10c00005 	stb	r3,0(r2)
      dest_line_ptr += 1;
 4000f60:	e0bff917 	ldw	r2,-28(fp)
 4000f64:	10800044 	addi	r2,r2,1
 4000f68:	e0bff915 	stw	r2,-28(fp)
  
  for( src_row = 0 ; src_row < src_active_height ; src_row++ )
  {
    src_line_ptr = src_ptr;
    dest_line_ptr = dest_ptr;
    for( src_col = 0 ; src_col < src_active_width ; src_col++ )
 4000f6c:	e0bff717 	ldw	r2,-36(fp)
 4000f70:	10800044 	addi	r2,r2,1
 4000f74:	e0bff715 	stw	r2,-36(fp)
 4000f78:	003fd306 	br	4000ec8 <__alt_mem_epcs_flash_controller_0+0xfafffec8>
      src_line_ptr += 1;
      dest_line_ptr += 1;
      *(unsigned char *)(dest_line_ptr)  = 0xff;
      dest_line_ptr += 1;
    }
    src_ptr += src_increment;
 4000f7c:	e0bffa17 	ldw	r2,-24(fp)
 4000f80:	e0fffc17 	ldw	r3,-16(fp)
 4000f84:	1885883a 	add	r2,r3,r2
 4000f88:	e0bffc15 	stw	r2,-16(fp)
    dest_ptr += dest_increment;
 4000f8c:	e0bffb17 	ldw	r2,-20(fp)
 4000f90:	e0c00117 	ldw	r3,4(fp)
 4000f94:	1885883a 	add	r2,r3,r2
 4000f98:	e0800115 	stw	r2,4(fp)
  long src_increment, dest_increment;
  
  src_increment = src_line_width + src_line_width + src_line_width;
  dest_increment = dest_line_width + dest_line_width + dest_line_width + dest_line_width;
  
  for( src_row = 0 ; src_row < src_active_height ; src_row++ )
 4000f9c:	e0bff617 	ldw	r2,-40(fp)
 4000fa0:	10800044 	addi	r2,r2,1
 4000fa4:	e0bff615 	stw	r2,-40(fp)
 4000fa8:	003fbf06 	br	4000ea8 <__alt_mem_epcs_flash_controller_0+0xfafffea8>
      dest_line_ptr += 1;
    }
    src_ptr += src_increment;
    dest_ptr += dest_increment;
  }
}
 4000fac:	0001883a 	nop
 4000fb0:	e037883a 	mov	sp,fp
 4000fb4:	df000017 	ldw	fp,0(sp)
 4000fb8:	dec00104 	addi	sp,sp,4
 4000fbc:	f800283a 	ret

04000fc0 <_Z21copy_pix_map_24_to_24PvlllS_l>:
                    long src_active_height,
                    long src_line_width,
                    void *dest_ptr,
                    long dest_line_width
                  )
{
 4000fc0:	defff504 	addi	sp,sp,-44
 4000fc4:	df000a15 	stw	fp,40(sp)
 4000fc8:	df000a04 	addi	fp,sp,40
 4000fcc:	e13ffc15 	stw	r4,-16(fp)
 4000fd0:	e17ffd15 	stw	r5,-12(fp)
 4000fd4:	e1bffe15 	stw	r6,-8(fp)
 4000fd8:	e1ffff15 	stw	r7,-4(fp)
  int src_row, src_col;
  void *src_line_ptr, *dest_line_ptr;
  long src_increment, dest_increment;

  src_increment = src_line_width + src_line_width + src_line_width;
 4000fdc:	e0ffff17 	ldw	r3,-4(fp)
 4000fe0:	e0bfff17 	ldw	r2,-4(fp)
 4000fe4:	1887883a 	add	r3,r3,r2
 4000fe8:	e0bfff17 	ldw	r2,-4(fp)
 4000fec:	1885883a 	add	r2,r3,r2
 4000ff0:	e0bffa15 	stw	r2,-24(fp)
  dest_increment = dest_line_width + dest_line_width + dest_line_width;
 4000ff4:	e0c00217 	ldw	r3,8(fp)
 4000ff8:	e0800217 	ldw	r2,8(fp)
 4000ffc:	1887883a 	add	r3,r3,r2
 4001000:	e0800217 	ldw	r2,8(fp)
 4001004:	1885883a 	add	r2,r3,r2
 4001008:	e0bffb15 	stw	r2,-20(fp)
  
  for( src_row = 0 ; src_row < src_active_height ; src_row++ )
 400100c:	e03ff615 	stw	zero,-40(fp)
 4001010:	e0fff617 	ldw	r3,-40(fp)
 4001014:	e0bffe17 	ldw	r2,-8(fp)
 4001018:	1880360e 	bge	r3,r2,40010f4 <_Z21copy_pix_map_24_to_24PvlllS_l+0x134>
  {
    src_line_ptr = src_ptr;
 400101c:	e0bffc17 	ldw	r2,-16(fp)
 4001020:	e0bff815 	stw	r2,-32(fp)
    dest_line_ptr = dest_ptr;
 4001024:	e0800117 	ldw	r2,4(fp)
 4001028:	e0bff915 	stw	r2,-28(fp)
    for( src_col = 0 ; src_col < src_active_width ; src_col++ )
 400102c:	e03ff715 	stw	zero,-36(fp)
 4001030:	e0fff717 	ldw	r3,-36(fp)
 4001034:	e0bffd17 	ldw	r2,-12(fp)
 4001038:	1880220e 	bge	r3,r2,40010c4 <_Z21copy_pix_map_24_to_24PvlllS_l+0x104>
    {
      *(unsigned char *)(dest_line_ptr) = (*(unsigned char *)(src_line_ptr));
 400103c:	e0bff817 	ldw	r2,-32(fp)
 4001040:	10c00003 	ldbu	r3,0(r2)
 4001044:	e0bff917 	ldw	r2,-28(fp)
 4001048:	10c00005 	stb	r3,0(r2)
      src_line_ptr += 1;
 400104c:	e0bff817 	ldw	r2,-32(fp)
 4001050:	10800044 	addi	r2,r2,1
 4001054:	e0bff815 	stw	r2,-32(fp)
      dest_line_ptr += 1;
 4001058:	e0bff917 	ldw	r2,-28(fp)
 400105c:	10800044 	addi	r2,r2,1
 4001060:	e0bff915 	stw	r2,-28(fp)
      *(unsigned char *)(dest_line_ptr) = (*(unsigned char *)(src_line_ptr));
 4001064:	e0bff817 	ldw	r2,-32(fp)
 4001068:	10c00003 	ldbu	r3,0(r2)
 400106c:	e0bff917 	ldw	r2,-28(fp)
 4001070:	10c00005 	stb	r3,0(r2)
      src_line_ptr += 1;
 4001074:	e0bff817 	ldw	r2,-32(fp)
 4001078:	10800044 	addi	r2,r2,1
 400107c:	e0bff815 	stw	r2,-32(fp)
      dest_line_ptr += 1;
 4001080:	e0bff917 	ldw	r2,-28(fp)
 4001084:	10800044 	addi	r2,r2,1
 4001088:	e0bff915 	stw	r2,-28(fp)
      *(unsigned char *)(dest_line_ptr) = (*(unsigned char *)(src_line_ptr));
 400108c:	e0bff817 	ldw	r2,-32(fp)
 4001090:	10c00003 	ldbu	r3,0(r2)
 4001094:	e0bff917 	ldw	r2,-28(fp)
 4001098:	10c00005 	stb	r3,0(r2)
      src_line_ptr += 1;
 400109c:	e0bff817 	ldw	r2,-32(fp)
 40010a0:	10800044 	addi	r2,r2,1
 40010a4:	e0bff815 	stw	r2,-32(fp)
      dest_line_ptr += 1;
 40010a8:	e0bff917 	ldw	r2,-28(fp)
 40010ac:	10800044 	addi	r2,r2,1
 40010b0:	e0bff915 	stw	r2,-28(fp)
  
  for( src_row = 0 ; src_row < src_active_height ; src_row++ )
  {
    src_line_ptr = src_ptr;
    dest_line_ptr = dest_ptr;
    for( src_col = 0 ; src_col < src_active_width ; src_col++ )
 40010b4:	e0bff717 	ldw	r2,-36(fp)
 40010b8:	10800044 	addi	r2,r2,1
 40010bc:	e0bff715 	stw	r2,-36(fp)
 40010c0:	003fdb06 	br	4001030 <__alt_mem_epcs_flash_controller_0+0xfb000030>
      dest_line_ptr += 1;
      *(unsigned char *)(dest_line_ptr) = (*(unsigned char *)(src_line_ptr));
      src_line_ptr += 1;
      dest_line_ptr += 1;
    }
    src_ptr += src_increment;
 40010c4:	e0bffa17 	ldw	r2,-24(fp)
 40010c8:	e0fffc17 	ldw	r3,-16(fp)
 40010cc:	1885883a 	add	r2,r3,r2
 40010d0:	e0bffc15 	stw	r2,-16(fp)
    dest_ptr += dest_increment;
 40010d4:	e0bffb17 	ldw	r2,-20(fp)
 40010d8:	e0c00117 	ldw	r3,4(fp)
 40010dc:	1885883a 	add	r2,r3,r2
 40010e0:	e0800115 	stw	r2,4(fp)
  long src_increment, dest_increment;

  src_increment = src_line_width + src_line_width + src_line_width;
  dest_increment = dest_line_width + dest_line_width + dest_line_width;
  
  for( src_row = 0 ; src_row < src_active_height ; src_row++ )
 40010e4:	e0bff617 	ldw	r2,-40(fp)
 40010e8:	10800044 	addi	r2,r2,1
 40010ec:	e0bff615 	stw	r2,-40(fp)
 40010f0:	003fc706 	br	4001010 <__alt_mem_epcs_flash_controller_0+0xfb000010>
      dest_line_ptr += 1;
    }
    src_ptr += src_increment;
    dest_ptr += dest_increment;
  }
}
 40010f4:	0001883a 	nop
 40010f8:	e037883a 	mov	sp,fp
 40010fc:	df000017 	ldw	fp,0(sp)
 4001100:	dec00104 	addi	sp,sp,4
 4001104:	f800283a 	ret

04001108 <_Z21copy_pix_map_24_to_16PvlllS_l>:
                    long src_active_height,
                    long src_line_width,
                    void *dest_ptr,
                    long dest_line_width
                  )
{
 4001108:	defff404 	addi	sp,sp,-48
 400110c:	df000b15 	stw	fp,44(sp)
 4001110:	df000b04 	addi	fp,sp,44
 4001114:	e13ffc15 	stw	r4,-16(fp)
 4001118:	e17ffd15 	stw	r5,-12(fp)
 400111c:	e1bffe15 	stw	r6,-8(fp)
 4001120:	e1ffff15 	stw	r7,-4(fp)
  int src_row, src_col;
  unsigned short next_short_pixel;
  void *src_line_ptr, *dest_line_ptr;
  long src_increment, dest_increment;

  src_increment = src_line_width + src_line_width + src_line_width;
 4001124:	e0ffff17 	ldw	r3,-4(fp)
 4001128:	e0bfff17 	ldw	r2,-4(fp)
 400112c:	1887883a 	add	r3,r3,r2
 4001130:	e0bfff17 	ldw	r2,-4(fp)
 4001134:	1885883a 	add	r2,r3,r2
 4001138:	e0bff915 	stw	r2,-28(fp)
  dest_increment = dest_line_width + dest_line_width;
 400113c:	e0c00217 	ldw	r3,8(fp)
 4001140:	e0800217 	ldw	r2,8(fp)
 4001144:	1885883a 	add	r2,r3,r2
 4001148:	e0bffa15 	stw	r2,-24(fp)
  
  for( src_row = 0 ; src_row < src_active_height ; src_row++ )
 400114c:	e03ff515 	stw	zero,-44(fp)
 4001150:	e0fff517 	ldw	r3,-44(fp)
 4001154:	e0bffe17 	ldw	r2,-8(fp)
 4001158:	18803e0e 	bge	r3,r2,4001254 <_Z21copy_pix_map_24_to_16PvlllS_l+0x14c>
  {
    src_line_ptr = src_ptr;
 400115c:	e0bffc17 	ldw	r2,-16(fp)
 4001160:	e0bff715 	stw	r2,-36(fp)
    dest_line_ptr = dest_ptr;
 4001164:	e0800117 	ldw	r2,4(fp)
 4001168:	e0bff815 	stw	r2,-32(fp)
    for( src_col = 0 ; src_col < src_active_width ; src_col++ )
 400116c:	e03ff615 	stw	zero,-40(fp)
 4001170:	e0fff617 	ldw	r3,-40(fp)
 4001174:	e0bffd17 	ldw	r2,-12(fp)
 4001178:	18802a0e 	bge	r3,r2,4001224 <_Z21copy_pix_map_24_to_16PvlllS_l+0x11c>
    {
      next_short_pixel  = ((*(unsigned char *)(src_line_ptr)) & 0xf8) << 8 ;
 400117c:	e0bff717 	ldw	r2,-36(fp)
 4001180:	10800003 	ldbu	r2,0(r2)
 4001184:	10803fcc 	andi	r2,r2,255
 4001188:	10803e0c 	andi	r2,r2,248
 400118c:	1004923a 	slli	r2,r2,8
 4001190:	e0bffb0d 	sth	r2,-20(fp)
      src_line_ptr += 1;
 4001194:	e0bff717 	ldw	r2,-36(fp)
 4001198:	10800044 	addi	r2,r2,1
 400119c:	e0bff715 	stw	r2,-36(fp)
      next_short_pixel |= ((*(unsigned char *)(src_line_ptr)) & 0xfc) << 3;
 40011a0:	e0bff717 	ldw	r2,-36(fp)
 40011a4:	10800003 	ldbu	r2,0(r2)
 40011a8:	10803fcc 	andi	r2,r2,255
 40011ac:	10803f0c 	andi	r2,r2,252
 40011b0:	100490fa 	slli	r2,r2,3
 40011b4:	1007883a 	mov	r3,r2
 40011b8:	e0bffb0b 	ldhu	r2,-20(fp)
 40011bc:	1884b03a 	or	r2,r3,r2
 40011c0:	e0bffb0d 	sth	r2,-20(fp)
      src_line_ptr += 1;
 40011c4:	e0bff717 	ldw	r2,-36(fp)
 40011c8:	10800044 	addi	r2,r2,1
 40011cc:	e0bff715 	stw	r2,-36(fp)
      next_short_pixel |= ((*(unsigned char *)(src_line_ptr)) & 0xf8) >> 3;
 40011d0:	e0bff717 	ldw	r2,-36(fp)
 40011d4:	10800003 	ldbu	r2,0(r2)
 40011d8:	10803fcc 	andi	r2,r2,255
 40011dc:	1004d0fa 	srli	r2,r2,3
 40011e0:	10c03fcc 	andi	r3,r2,255
 40011e4:	e0bffb0b 	ldhu	r2,-20(fp)
 40011e8:	1884b03a 	or	r2,r3,r2
 40011ec:	e0bffb0d 	sth	r2,-20(fp)
      src_line_ptr += 1;
 40011f0:	e0bff717 	ldw	r2,-36(fp)
 40011f4:	10800044 	addi	r2,r2,1
 40011f8:	e0bff715 	stw	r2,-36(fp)
  
      *(unsigned short *)(dest_line_ptr) = next_short_pixel;
 40011fc:	e0bff817 	ldw	r2,-32(fp)
 4001200:	e0fffb0b 	ldhu	r3,-20(fp)
 4001204:	10c0000d 	sth	r3,0(r2)
      dest_line_ptr += 2;
 4001208:	e0bff817 	ldw	r2,-32(fp)
 400120c:	10800084 	addi	r2,r2,2
 4001210:	e0bff815 	stw	r2,-32(fp)
  
  for( src_row = 0 ; src_row < src_active_height ; src_row++ )
  {
    src_line_ptr = src_ptr;
    dest_line_ptr = dest_ptr;
    for( src_col = 0 ; src_col < src_active_width ; src_col++ )
 4001214:	e0bff617 	ldw	r2,-40(fp)
 4001218:	10800044 	addi	r2,r2,1
 400121c:	e0bff615 	stw	r2,-40(fp)
 4001220:	003fd306 	br	4001170 <__alt_mem_epcs_flash_controller_0+0xfb000170>
      src_line_ptr += 1;
  
      *(unsigned short *)(dest_line_ptr) = next_short_pixel;
      dest_line_ptr += 2;
    }
    src_ptr += src_increment;
 4001224:	e0bff917 	ldw	r2,-28(fp)
 4001228:	e0fffc17 	ldw	r3,-16(fp)
 400122c:	1885883a 	add	r2,r3,r2
 4001230:	e0bffc15 	stw	r2,-16(fp)
    dest_ptr += dest_increment;
 4001234:	e0bffa17 	ldw	r2,-24(fp)
 4001238:	e0c00117 	ldw	r3,4(fp)
 400123c:	1885883a 	add	r2,r3,r2
 4001240:	e0800115 	stw	r2,4(fp)
  long src_increment, dest_increment;

  src_increment = src_line_width + src_line_width + src_line_width;
  dest_increment = dest_line_width + dest_line_width;
  
  for( src_row = 0 ; src_row < src_active_height ; src_row++ )
 4001244:	e0bff517 	ldw	r2,-44(fp)
 4001248:	10800044 	addi	r2,r2,1
 400124c:	e0bff515 	stw	r2,-44(fp)
 4001250:	003fbf06 	br	4001150 <__alt_mem_epcs_flash_controller_0+0xfb000150>
      dest_line_ptr += 2;
    }
    src_ptr += src_increment;
    dest_ptr += dest_increment;
  }
}
 4001254:	0001883a 	nop
 4001258:	e037883a 	mov	sp,fp
 400125c:	df000017 	ldw	fp,0(sp)
 4001260:	dec00104 	addi	sp,sp,4
 4001264:	f800283a 	ret

04001268 <_Z16vid_clean_screenP16VIP_FRAME_READERi>:
#include "sys/alt_cache.h"
#include "system.h"


// richard add
void vid_clean_screen(alt_video_display* display, int color){
 4001268:	defffa04 	addi	sp,sp,-24
 400126c:	dfc00515 	stw	ra,20(sp)
 4001270:	df000415 	stw	fp,16(sp)
 4001274:	df000404 	addi	fp,sp,16
 4001278:	e13ffe15 	stw	r4,-8(fp)
 400127c:	e17fff15 	stw	r5,-4(fp)
    vid_paint_block(0 , 0,display->width, display->height, color, display);
 4001280:	e0bffe17 	ldw	r2,-8(fp)
 4001284:	10c00517 	ldw	r3,20(r2)
 4001288:	e0bffe17 	ldw	r2,-8(fp)
 400128c:	11000617 	ldw	r4,24(r2)
 4001290:	e0bffe17 	ldw	r2,-8(fp)
 4001294:	d8800115 	stw	r2,4(sp)
 4001298:	e0bfff17 	ldw	r2,-4(fp)
 400129c:	d8800015 	stw	r2,0(sp)
 40012a0:	200f883a 	mov	r7,r4
 40012a4:	180d883a 	mov	r6,r3
 40012a8:	000b883a 	mov	r5,zero
 40012ac:	0009883a 	mov	r4,zero
 40012b0:	4001e300 	call	4001e30 <_Z15vid_paint_blockiiiiiP16VIP_FRAME_READER>
}
 40012b4:	0001883a 	nop
 40012b8:	e037883a 	mov	sp,fp
 40012bc:	dfc00117 	ldw	ra,4(sp)
 40012c0:	df000017 	ldw	fp,0(sp)
 40012c4:	dec00204 	addi	sp,sp,8
 40012c8:	f800283a 	ret

040012cc <_Z22vid_scroll_string_quitP22vid_text_scroll_struct>:
}



void vid_scroll_string_quit(vid_text_scroll_struct* scroll)
{
 40012cc:	defffd04 	addi	sp,sp,-12
 40012d0:	dfc00215 	stw	ra,8(sp)
 40012d4:	df000115 	stw	fp,4(sp)
 40012d8:	df000104 	addi	fp,sp,4
 40012dc:	e13fff15 	stw	r4,-4(fp)
  free(scroll->string);
 40012e0:	e0bfff17 	ldw	r2,-4(fp)
 40012e4:	10800517 	ldw	r2,20(r2)
 40012e8:	1009883a 	mov	r4,r2
 40012ec:	400dec80 	call	400dec8 <free>
  free(scroll);
 40012f0:	e13fff17 	ldw	r4,-4(fp)
 40012f4:	400dec80 	call	400dec8 <free>
}
 40012f8:	0001883a 	nop
 40012fc:	e037883a 	mov	sp,fp
 4001300:	dfc00117 	ldw	ra,4(sp)
 4001304:	df000017 	ldw	fp,0(sp)
 4001308:	dec00204 	addi	sp,sp,8
 400130c:	f800283a 	ret

04001310 <_Z22vid_scroll_string_initiiiiiPciS_>:

vid_text_scroll_struct* vid_scroll_string_init(int hbegin, int vbegin, int hend, int f_color, int b_color, char* font, int ms_delay, char *string)
{
 4001310:	defff904 	addi	sp,sp,-28
 4001314:	dfc00615 	stw	ra,24(sp)
 4001318:	df000515 	stw	fp,20(sp)
 400131c:	df000504 	addi	fp,sp,20
 4001320:	e13ffc15 	stw	r4,-16(fp)
 4001324:	e17ffd15 	stw	r5,-12(fp)
 4001328:	e1bffe15 	stw	r6,-8(fp)
 400132c:	e1ffff15 	stw	r7,-4(fp)
  vid_text_scroll_struct* scroll;
  scroll = (vid_text_scroll_struct *)malloc(sizeof (vid_text_scroll_struct));
 4001330:	01000f04 	movi	r4,60
 4001334:	400deb40 	call	400deb4 <malloc>
 4001338:	e0bffb15 	stw	r2,-20(fp)
  
  scroll->hbegin = hbegin;
 400133c:	e0bffb17 	ldw	r2,-20(fp)
 4001340:	e0fffc17 	ldw	r3,-16(fp)
 4001344:	10c00015 	stw	r3,0(r2)
  scroll->vbegin = vbegin;
 4001348:	e0bffb17 	ldw	r2,-20(fp)
 400134c:	e0fffd17 	ldw	r3,-12(fp)
 4001350:	10c00115 	stw	r3,4(r2)
  scroll->hend = hend;
 4001354:	e0bffb17 	ldw	r2,-20(fp)
 4001358:	e0fffe17 	ldw	r3,-8(fp)
 400135c:	10c00215 	stw	r3,8(r2)
  scroll->f_color = f_color;
 4001360:	e0bffb17 	ldw	r2,-20(fp)
 4001364:	e0ffff17 	ldw	r3,-4(fp)
 4001368:	10c00315 	stw	r3,12(r2)
  scroll->b_color = b_color;
 400136c:	e0bffb17 	ldw	r2,-20(fp)
 4001370:	e0c00217 	ldw	r3,8(fp)
 4001374:	10c00415 	stw	r3,16(r2)
  scroll->string = (char *)malloc(strlen(string)+2);
 4001378:	e1000517 	ldw	r4,20(fp)
 400137c:	400ec400 	call	400ec40 <strlen>
 4001380:	10800084 	addi	r2,r2,2
 4001384:	1009883a 	mov	r4,r2
 4001388:	400deb40 	call	400deb4 <malloc>
 400138c:	1007883a 	mov	r3,r2
 4001390:	e0bffb17 	ldw	r2,-20(fp)
 4001394:	10c00515 	stw	r3,20(r2)
  strcpy(scroll->string, string);
 4001398:	e0bffb17 	ldw	r2,-20(fp)
 400139c:	10800517 	ldw	r2,20(r2)
 40013a0:	e1400517 	ldw	r5,20(fp)
 40013a4:	1009883a 	mov	r4,r2
 40013a8:	400ebb00 	call	400ebb0 <strcpy>
  scroll->font = font;
 40013ac:	e0bffb17 	ldw	r2,-20(fp)
 40013b0:	e0c00317 	ldw	r3,12(fp)
 40013b4:	10c00615 	stw	r3,24(r2)
  scroll->ms_delay = ms_delay;
 40013b8:	e0bffb17 	ldw	r2,-20(fp)
 40013bc:	e0c00417 	ldw	r3,16(fp)
 40013c0:	10c00715 	stw	r3,28(r2)
 * alt_nticks() returns the elapsed number of system clock ticks since reset.
 */

static ALT_INLINE alt_u32 ALT_ALWAYS_INLINE alt_nticks (void)
{
  return _alt_nticks;
 40013c4:	d0a02117 	ldw	r2,-32636(gp)
  scroll->ticks_at_last_move = alt_nticks();
 40013c8:	1007883a 	mov	r3,r2
 40013cc:	e0bffb17 	ldw	r2,-20(fp)
 40013d0:	10c00815 	stw	r3,32(r2)
  scroll->text_scroll_index = 0;
 40013d4:	e0bffb17 	ldw	r2,-20(fp)
 40013d8:	10000915 	stw	zero,36(r2)
  scroll->text_scroll_started = 0;
 40013dc:	e0bffb17 	ldw	r2,-20(fp)
 40013e0:	10000a05 	stb	zero,40(r2)
  scroll->window_width = scroll->hend - scroll->hbegin;
 40013e4:	e0bffb17 	ldw	r2,-20(fp)
 40013e8:	10c00217 	ldw	r3,8(r2)
 40013ec:	e0bffb17 	ldw	r2,-20(fp)
 40013f0:	10800017 	ldw	r2,0(r2)
 40013f4:	1887c83a 	sub	r3,r3,r2
 40013f8:	e0bffb17 	ldw	r2,-20(fp)
 40013fc:	10c00b15 	stw	r3,44(r2)
  scroll->length_of_string = strlen(string);
 4001400:	e1000517 	ldw	r4,20(fp)
 4001404:	400ec400 	call	400ec40 <strlen>
 4001408:	1007883a 	mov	r3,r2
 400140c:	e0bffb17 	ldw	r2,-20(fp)
 4001410:	10c00c15 	stw	r3,48(r2)
  scroll->string_points = scroll->length_of_string * 8;
 4001414:	e0bffb17 	ldw	r2,-20(fp)
 4001418:	10800c17 	ldw	r2,48(r2)
 400141c:	100690fa 	slli	r3,r2,3
 4001420:	e0bffb17 	ldw	r2,-20(fp)
 4001424:	10c00e15 	stw	r3,56(r2)
  scroll->scroll_points = (scroll->window_width + scroll->string_points);
 4001428:	e0bffb17 	ldw	r2,-20(fp)
 400142c:	10c00b17 	ldw	r3,44(r2)
 4001430:	e0bffb17 	ldw	r2,-20(fp)
 4001434:	10800e17 	ldw	r2,56(r2)
 4001438:	1887883a 	add	r3,r3,r2
 400143c:	e0bffb17 	ldw	r2,-20(fp)
 4001440:	10c00d15 	stw	r3,52(r2)
 
  return(scroll);
 4001444:	e0bffb17 	ldw	r2,-20(fp)
  
}
 4001448:	e037883a 	mov	sp,fp
 400144c:	dfc00117 	ldw	ra,4(sp)
 4001450:	df000017 	ldw	fp,0(sp)
 4001454:	dec00204 	addi	sp,sp,8
 4001458:	f800283a 	ret

0400145c <_Z17vid_scroll_stringP22vid_text_scroll_structP16VIP_FRAME_READER>:


int vid_scroll_string(vid_text_scroll_struct* scroll, alt_video_display* display)
{
 400145c:	deffec04 	addi	sp,sp,-80
 4001460:	dfc01315 	stw	ra,76(sp)
 4001464:	df001215 	stw	fp,72(sp)
 4001468:	dc401115 	stw	r17,68(sp)
 400146c:	dc001015 	stw	r16,64(sp)
 4001470:	df001204 	addi	fp,sp,72
 4001474:	e13ffc15 	stw	r4,-16(fp)
 4001478:	e17ffd15 	stw	r5,-12(fp)

  int x_start, x_end, x_index, string_x_index, string_char_index, char_row, char_column;
  char character, column_mask;
  char* font_char_ptr;
  char pixels_to_move_by = 1;
 400147c:	00800044 	movi	r2,1
 4001480:	e0bff605 	stb	r2,-40(fp)
 4001484:	d4202117 	ldw	r16,-32636(gp)

  // If it's time to move the scroll..
  if (alt_nticks() >= (scroll->ticks_at_last_move + ((alt_ticks_per_second() * (scroll->ms_delay)) / 1000))) {
 4001488:	e0bffc17 	ldw	r2,-16(fp)
 400148c:	10800817 	ldw	r2,32(r2)
 4001490:	1023883a 	mov	r17,r2
 * Obtain the system clock rate in ticks/s. 
 */

static ALT_INLINE alt_u32 ALT_ALWAYS_INLINE alt_ticks_per_second (void)
{
  return _alt_tick_rate;
 4001494:	d0a02017 	ldw	r2,-32640(gp)
 4001498:	e0fffc17 	ldw	r3,-16(fp)
 400149c:	18c00717 	ldw	r3,28(r3)
 40014a0:	10c5383a 	mul	r2,r2,r3
 40014a4:	0140fa04 	movi	r5,1000
 40014a8:	1009883a 	mov	r4,r2
 40014ac:	400a1140 	call	400a114 <__udivsi3>
 40014b0:	8885883a 	add	r2,r17,r2
 40014b4:	8085403a 	cmpgeu	r2,r16,r2
 40014b8:	10803fcc 	andi	r2,r2,255
 40014bc:	1000b926 	beq	r2,zero,40017a4 <_Z17vid_scroll_stringP22vid_text_scroll_structP16VIP_FRAME_READER+0x348>
 * alt_nticks() returns the elapsed number of system clock ticks since reset.
 */

static ALT_INLINE alt_u32 ALT_ALWAYS_INLINE alt_nticks (void)
{
  return _alt_nticks;
 40014c0:	d0a02117 	ldw	r2,-32636(gp)
    scroll->ticks_at_last_move = alt_nticks();
 40014c4:	1007883a 	mov	r3,r2
 40014c8:	e0bffc17 	ldw	r2,-16(fp)
 40014cc:	10c00815 	stw	r3,32(r2)
    
    // Track where we are in the scroll.
    if(scroll->text_scroll_started == 0) {
 40014d0:	e0bffc17 	ldw	r2,-16(fp)
 40014d4:	10800a03 	ldbu	r2,40(r2)
 40014d8:	10803fcc 	andi	r2,r2,255
 40014dc:	1080201c 	xori	r2,r2,128
 40014e0:	10bfe004 	addi	r2,r2,-128
 40014e4:	1000061e 	bne	r2,zero,4001500 <_Z17vid_scroll_stringP22vid_text_scroll_structP16VIP_FRAME_READER+0xa4>
      scroll->text_scroll_index = 0;
 40014e8:	e0bffc17 	ldw	r2,-16(fp)
 40014ec:	10000915 	stw	zero,36(r2)
      scroll->text_scroll_started = 1;
 40014f0:	e0bffc17 	ldw	r2,-16(fp)
 40014f4:	00c00044 	movi	r3,1
 40014f8:	10c00a05 	stb	r3,40(r2)
 40014fc:	00000e06 	br	4001538 <_Z17vid_scroll_stringP22vid_text_scroll_structP16VIP_FRAME_READER+0xdc>
    } else if(scroll->text_scroll_index >= scroll->scroll_points)  {
 4001500:	e0bffc17 	ldw	r2,-16(fp)
 4001504:	10c00917 	ldw	r3,36(r2)
 4001508:	e0bffc17 	ldw	r2,-16(fp)
 400150c:	10800d17 	ldw	r2,52(r2)
 4001510:	18800316 	blt	r3,r2,4001520 <_Z17vid_scroll_stringP22vid_text_scroll_structP16VIP_FRAME_READER+0xc4>
      scroll->text_scroll_started = 0;
 4001514:	e0bffc17 	ldw	r2,-16(fp)
 4001518:	10000a05 	stb	zero,40(r2)
 400151c:	00000606 	br	4001538 <_Z17vid_scroll_stringP22vid_text_scroll_structP16VIP_FRAME_READER+0xdc>
    } else {
      scroll->text_scroll_index += pixels_to_move_by;
 4001520:	e0bffc17 	ldw	r2,-16(fp)
 4001524:	10c00917 	ldw	r3,36(r2)
 4001528:	e0bff607 	ldb	r2,-40(fp)
 400152c:	1887883a 	add	r3,r3,r2
 4001530:	e0bffc17 	ldw	r2,-16(fp)
 4001534:	10c00915 	stw	r3,36(r2)
    }
    
    //Find out where we start
    if (scroll->text_scroll_index < scroll->window_width) {
 4001538:	e0bffc17 	ldw	r2,-16(fp)
 400153c:	10c00917 	ldw	r3,36(r2)
 4001540:	e0bffc17 	ldw	r2,-16(fp)
 4001544:	10800b17 	ldw	r2,44(r2)
 4001548:	18800a0e 	bge	r3,r2,4001574 <_Z17vid_scroll_stringP22vid_text_scroll_structP16VIP_FRAME_READER+0x118>
      x_start = scroll->hbegin + scroll->window_width - scroll->text_scroll_index;
 400154c:	e0bffc17 	ldw	r2,-16(fp)
 4001550:	10c00017 	ldw	r3,0(r2)
 4001554:	e0bffc17 	ldw	r2,-16(fp)
 4001558:	10800b17 	ldw	r2,44(r2)
 400155c:	1887883a 	add	r3,r3,r2
 4001560:	e0bffc17 	ldw	r2,-16(fp)
 4001564:	10800917 	ldw	r2,36(r2)
 4001568:	1885c83a 	sub	r2,r3,r2
 400156c:	e0bff115 	stw	r2,-60(fp)
 4001570:	00000306 	br	4001580 <_Z17vid_scroll_stringP22vid_text_scroll_structP16VIP_FRAME_READER+0x124>
    } else {
      x_start = scroll->hbegin;
 4001574:	e0bffc17 	ldw	r2,-16(fp)
 4001578:	10800017 	ldw	r2,0(r2)
 400157c:	e0bff115 	stw	r2,-60(fp)
    }
    //Find out where we end
    if (scroll->string_points > scroll->text_scroll_index) {
 4001580:	e0bffc17 	ldw	r2,-16(fp)
 4001584:	10800e17 	ldw	r2,56(r2)
 4001588:	e0fffc17 	ldw	r3,-16(fp)
 400158c:	18c00917 	ldw	r3,36(r3)
 4001590:	1880040e 	bge	r3,r2,40015a4 <_Z17vid_scroll_stringP22vid_text_scroll_structP16VIP_FRAME_READER+0x148>
      x_end = scroll->hend;
 4001594:	e0bffc17 	ldw	r2,-16(fp)
 4001598:	10800217 	ldw	r2,8(r2)
 400159c:	e0bff215 	stw	r2,-56(fp)
 40015a0:	00000906 	br	40015c8 <_Z17vid_scroll_stringP22vid_text_scroll_structP16VIP_FRAME_READER+0x16c>
    } else {
      x_end = (scroll->hend - scroll->text_scroll_index + scroll->string_points);
 40015a4:	e0bffc17 	ldw	r2,-16(fp)
 40015a8:	10c00217 	ldw	r3,8(r2)
 40015ac:	e0bffc17 	ldw	r2,-16(fp)
 40015b0:	10800917 	ldw	r2,36(r2)
 40015b4:	1887c83a 	sub	r3,r3,r2
 40015b8:	e0bffc17 	ldw	r2,-16(fp)
 40015bc:	10800e17 	ldw	r2,56(r2)
 40015c0:	1885883a 	add	r2,r3,r2
 40015c4:	e0bff215 	stw	r2,-56(fp)
    }

    // Write the string segment a column (x) at a time
    for(x_index = x_start; x_index < x_end; x_index++) {
 40015c8:	e0bff117 	ldw	r2,-60(fp)
 40015cc:	e0bff315 	stw	r2,-52(fp)
 40015d0:	e0fff317 	ldw	r3,-52(fp)
 40015d4:	e0bff217 	ldw	r2,-56(fp)
 40015d8:	1880610e 	bge	r3,r2,4001760 <_Z17vid_scroll_stringP22vid_text_scroll_structP16VIP_FRAME_READER+0x304>
      // Find the x index we're at within the string
      // If first part of string hasnt yet reached left side of scroll window
      if (scroll->text_scroll_index < scroll->window_width) {
 40015dc:	e0bffc17 	ldw	r2,-16(fp)
 40015e0:	10c00917 	ldw	r3,36(r2)
 40015e4:	e0bffc17 	ldw	r2,-16(fp)
 40015e8:	10800b17 	ldw	r2,44(r2)
 40015ec:	1880050e 	bge	r3,r2,4001604 <_Z17vid_scroll_stringP22vid_text_scroll_structP16VIP_FRAME_READER+0x1a8>
        string_x_index = (x_index - x_start);
 40015f0:	e0fff317 	ldw	r3,-52(fp)
 40015f4:	e0bff117 	ldw	r2,-60(fp)
 40015f8:	1885c83a 	sub	r2,r3,r2
 40015fc:	e0bff415 	stw	r2,-48(fp)
 4001600:	00000a06 	br	400162c <_Z17vid_scroll_stringP22vid_text_scroll_structP16VIP_FRAME_READER+0x1d0>
      } else {
        string_x_index = scroll->text_scroll_index - scroll->window_width + x_index - x_start;
 4001604:	e0bffc17 	ldw	r2,-16(fp)
 4001608:	10c00917 	ldw	r3,36(r2)
 400160c:	e0bffc17 	ldw	r2,-16(fp)
 4001610:	10800b17 	ldw	r2,44(r2)
 4001614:	1887c83a 	sub	r3,r3,r2
 4001618:	e0bff317 	ldw	r2,-52(fp)
 400161c:	1887883a 	add	r3,r3,r2
 4001620:	e0bff117 	ldw	r2,-60(fp)
 4001624:	1885c83a 	sub	r2,r3,r2
 4001628:	e0bff415 	stw	r2,-48(fp)
      }
      //Find the character we're supposed to be writing
      string_char_index = (string_x_index / 8);
 400162c:	e0bff417 	ldw	r2,-48(fp)
 4001630:	1000010e 	bge	r2,zero,4001638 <_Z17vid_scroll_stringP22vid_text_scroll_structP16VIP_FRAME_READER+0x1dc>
 4001634:	108001c4 	addi	r2,r2,7
 4001638:	1005d0fa 	srai	r2,r2,3
 400163c:	e0bff715 	stw	r2,-36(fp)
      character = scroll->string[string_char_index];
 4001640:	e0bffc17 	ldw	r2,-16(fp)
 4001644:	10c00517 	ldw	r3,20(r2)
 4001648:	e0bff717 	ldw	r2,-36(fp)
 400164c:	1885883a 	add	r2,r3,r2
 4001650:	10800003 	ldbu	r2,0(r2)
 4001654:	e0bff805 	stb	r2,-32(fp)
      char_column = (string_x_index % 8);
 4001658:	e0fff417 	ldw	r3,-48(fp)
 400165c:	00a00034 	movhi	r2,32768
 4001660:	108001c4 	addi	r2,r2,7
 4001664:	1884703a 	and	r2,r3,r2
 4001668:	1000040e 	bge	r2,zero,400167c <_Z17vid_scroll_stringP22vid_text_scroll_structP16VIP_FRAME_READER+0x220>
 400166c:	10bfffc4 	addi	r2,r2,-1
 4001670:	00fffe04 	movi	r3,-8
 4001674:	10c4b03a 	or	r2,r2,r3
 4001678:	10800044 	addi	r2,r2,1
 400167c:	e0bff915 	stw	r2,-28(fp)
      column_mask = (((unsigned int)0x80) >> char_column);
 4001680:	00c02004 	movi	r3,128
 4001684:	e0bff917 	ldw	r2,-28(fp)
 4001688:	1884d83a 	srl	r2,r3,r2
 400168c:	e0bffa05 	stb	r2,-24(fp)
      font_char_ptr = (scroll->font + ((character - 0x20) * FONT_10PT_ROW));
 4001690:	e0bffc17 	ldw	r2,-16(fp)
 4001694:	10800617 	ldw	r2,24(r2)
 4001698:	e0fff807 	ldb	r3,-32(fp)
 400169c:	18fff804 	addi	r3,r3,-32
 40016a0:	18c002e4 	muli	r3,r3,11
 40016a4:	10c5883a 	add	r2,r2,r3
 40016a8:	e0bffb15 	stw	r2,-20(fp)
      //We have all the data now, so let's write a column
      for(char_row = 0; char_row < 11; char_row++) {
 40016ac:	e03ff515 	stw	zero,-44(fp)
 40016b0:	e0bff517 	ldw	r2,-44(fp)
 40016b4:	108002c8 	cmpgei	r2,r2,11
 40016b8:	1000251e 	bne	r2,zero,4001750 <_Z17vid_scroll_stringP22vid_text_scroll_structP16VIP_FRAME_READER+0x2f4>
        // If the font table says this pixel is on, then set it to the foreground color
        if (*(font_char_ptr + char_row) & column_mask) {
 40016bc:	e0bff517 	ldw	r2,-44(fp)
 40016c0:	e0fffb17 	ldw	r3,-20(fp)
 40016c4:	1885883a 	add	r2,r3,r2
 40016c8:	10c00003 	ldbu	r3,0(r2)
 40016cc:	e0bffa03 	ldbu	r2,-24(fp)
 40016d0:	1884703a 	and	r2,r3,r2
 40016d4:	10803fcc 	andi	r2,r2,255
 40016d8:	1080201c 	xori	r2,r2,128
 40016dc:	10bfe004 	addi	r2,r2,-128
 40016e0:	10000c26 	beq	r2,zero,4001714 <_Z17vid_scroll_stringP22vid_text_scroll_structP16VIP_FRAME_READER+0x2b8>
          vid_set_pixel(x_index, scroll->vbegin + char_row, scroll->f_color, display); 
 40016e4:	e0bffc17 	ldw	r2,-16(fp)
 40016e8:	10c00117 	ldw	r3,4(r2)
 40016ec:	e0bff517 	ldw	r2,-44(fp)
 40016f0:	1887883a 	add	r3,r3,r2
 40016f4:	e0bffc17 	ldw	r2,-16(fp)
 40016f8:	10800317 	ldw	r2,12(r2)
 40016fc:	e1fffd17 	ldw	r7,-12(fp)
 4001700:	100d883a 	mov	r6,r2
 4001704:	180b883a 	mov	r5,r3
 4001708:	e13ff317 	ldw	r4,-52(fp)
 400170c:	4001c300 	call	4001c30 <_Z13vid_set_pixeliijP16VIP_FRAME_READER>
 4001710:	00000b06 	br	4001740 <_Z17vid_scroll_stringP22vid_text_scroll_structP16VIP_FRAME_READER+0x2e4>
        // Otherwise, set it to the background color.
        } else {
          vid_set_pixel(x_index, scroll->vbegin + char_row, scroll->b_color, display); //background color
 4001714:	e0bffc17 	ldw	r2,-16(fp)
 4001718:	10c00117 	ldw	r3,4(r2)
 400171c:	e0bff517 	ldw	r2,-44(fp)
 4001720:	1887883a 	add	r3,r3,r2
 4001724:	e0bffc17 	ldw	r2,-16(fp)
 4001728:	10800417 	ldw	r2,16(r2)
 400172c:	e1fffd17 	ldw	r7,-12(fp)
 4001730:	100d883a 	mov	r6,r2
 4001734:	180b883a 	mov	r5,r3
 4001738:	e13ff317 	ldw	r4,-52(fp)
 400173c:	4001c300 	call	4001c30 <_Z13vid_set_pixeliijP16VIP_FRAME_READER>
      character = scroll->string[string_char_index];
      char_column = (string_x_index % 8);
      column_mask = (((unsigned int)0x80) >> char_column);
      font_char_ptr = (scroll->font + ((character - 0x20) * FONT_10PT_ROW));
      //We have all the data now, so let's write a column
      for(char_row = 0; char_row < 11; char_row++) {
 4001740:	e0bff517 	ldw	r2,-44(fp)
 4001744:	10800044 	addi	r2,r2,1
 4001748:	e0bff515 	stw	r2,-44(fp)
 400174c:	003fd806 	br	40016b0 <__alt_mem_epcs_flash_controller_0+0xfb0006b0>
    } else {
      x_end = (scroll->hend - scroll->text_scroll_index + scroll->string_points);
    }

    // Write the string segment a column (x) at a time
    for(x_index = x_start; x_index < x_end; x_index++) {
 4001750:	e0bff317 	ldw	r2,-52(fp)
 4001754:	10800044 	addi	r2,r2,1
 4001758:	e0bff315 	stw	r2,-52(fp)
 400175c:	003f9c06 	br	40015d0 <__alt_mem_epcs_flash_controller_0+0xfb0005d0>
          vid_set_pixel(x_index, scroll->vbegin + char_row, scroll->b_color, display); //background color
        }
      }
    }
    // Erase the leftover column (x) of the last string we wrote.
    vid_draw_line(x_end, scroll->vbegin, x_end, scroll->vbegin + 10, 1, scroll->b_color, display);
 4001760:	e0bffc17 	ldw	r2,-16(fp)
 4001764:	11000117 	ldw	r4,4(r2)
 4001768:	e0bffc17 	ldw	r2,-16(fp)
 400176c:	10800117 	ldw	r2,4(r2)
 4001770:	11400284 	addi	r5,r2,10
 4001774:	e0bffc17 	ldw	r2,-16(fp)
 4001778:	10800417 	ldw	r2,16(r2)
 400177c:	e0fffd17 	ldw	r3,-12(fp)
 4001780:	d8c00215 	stw	r3,8(sp)
 4001784:	d8800115 	stw	r2,4(sp)
 4001788:	00800044 	movi	r2,1
 400178c:	d8800015 	stw	r2,0(sp)
 4001790:	280f883a 	mov	r7,r5
 4001794:	e1bff217 	ldw	r6,-56(fp)
 4001798:	200b883a 	mov	r5,r4
 400179c:	e13ff217 	ldw	r4,-56(fp)
 40017a0:	4003e100 	call	4003e10 <_Z13vid_draw_lineiiiiiiP16VIP_FRAME_READER>
    // Log what time we moved the scroll.
  }
  return(0);
 40017a4:	0005883a 	mov	r2,zero
}
 40017a8:	e6fffe04 	addi	sp,fp,-8
 40017ac:	dfc00317 	ldw	ra,12(sp)
 40017b0:	df000217 	ldw	fp,8(sp)
 40017b4:	dc400117 	ldw	r17,4(sp)
 40017b8:	dc000017 	ldw	r16,0(sp)
 40017bc:	dec00404 	addi	sp,sp,16
 40017c0:	f800283a 	ret

040017c4 <_Z14vid_move_blockiiiiiiiP16VIP_FRAME_READER>:
*           the backfill_color parameter.
*
******************************************************************/

int vid_move_block(int xbegin, int ybegin, int xend, int yend, int x_distance, int y_distance, int backfill_color, alt_video_display* display)
{
 40017c4:	defff504 	addi	sp,sp,-44
 40017c8:	dfc00a15 	stw	ra,40(sp)
 40017cc:	df000915 	stw	fp,36(sp)
 40017d0:	df000904 	addi	fp,sp,36
 40017d4:	e13ffc15 	stw	r4,-16(fp)
 40017d8:	e17ffd15 	stw	r5,-12(fp)
 40017dc:	e1bffe15 	stw	r6,-8(fp)
 40017e0:	e1ffff15 	stw	r7,-4(fp)
  int read_x, read_y, write_x, write_y;
  short temp_pixel;
  
  if(x_distance <= 0 && y_distance <= 0) {  
 40017e4:	e0800217 	ldw	r2,8(fp)
 40017e8:	00803716 	blt	zero,r2,40018c8 <_Z14vid_move_blockiiiiiiiP16VIP_FRAME_READER+0x104>
 40017ec:	e0800317 	ldw	r2,12(fp)
 40017f0:	00803516 	blt	zero,r2,40018c8 <_Z14vid_move_blockiiiiiiiP16VIP_FRAME_READER+0x104>
    //Move by rows because they are contiguous in memory (could help speed if in SDRAM)
    for (read_y = ybegin; read_y < yend; read_y++) {
 40017f4:	e0bffd17 	ldw	r2,-12(fp)
 40017f8:	e0bff815 	stw	r2,-32(fp)
 40017fc:	e0fff817 	ldw	r3,-32(fp)
 4001800:	e0bfff17 	ldw	r2,-4(fp)
 4001804:	1880300e 	bge	r3,r2,40018c8 <_Z14vid_move_blockiiiiiiiP16VIP_FRAME_READER+0x104>
      write_y = read_y + y_distance;
 4001808:	e0fff817 	ldw	r3,-32(fp)
 400180c:	e0800317 	ldw	r2,12(fp)
 4001810:	1885883a 	add	r2,r3,r2
 4001814:	e0bff915 	stw	r2,-28(fp)
      for(read_x = xbegin; read_x < xend; read_x++) {
 4001818:	e0bffc17 	ldw	r2,-16(fp)
 400181c:	e0bff715 	stw	r2,-36(fp)
 4001820:	e0fff717 	ldw	r3,-36(fp)
 4001824:	e0bffe17 	ldw	r2,-8(fp)
 4001828:	1880230e 	bge	r3,r2,40018b8 <_Z14vid_move_blockiiiiiiiP16VIP_FRAME_READER+0xf4>
        write_x = read_x + x_distance;
 400182c:	e0fff717 	ldw	r3,-36(fp)
 4001830:	e0800217 	ldw	r2,8(fp)
 4001834:	1885883a 	add	r2,r3,r2
 4001838:	e0bffa15 	stw	r2,-24(fp)
        temp_pixel = vid_get_pixel(read_x, read_y, display);
 400183c:	e1800517 	ldw	r6,20(fp)
 4001840:	e17ff817 	ldw	r5,-32(fp)
 4001844:	e13ff717 	ldw	r4,-36(fp)
 4001848:	4001dbc0 	call	4001dbc <_Z13vid_get_pixeliiP16VIP_FRAME_READER>
 400184c:	e0bffb0d 	sth	r2,-20(fp)
        vid_set_pixel(write_x, write_y, temp_pixel, display);
 4001850:	e0bffb0f 	ldh	r2,-20(fp)
 4001854:	e1c00517 	ldw	r7,20(fp)
 4001858:	100d883a 	mov	r6,r2
 400185c:	e17ff917 	ldw	r5,-28(fp)
 4001860:	e13ffa17 	ldw	r4,-24(fp)
 4001864:	4001c300 	call	4001c30 <_Z13vid_set_pixeliijP16VIP_FRAME_READER>
        if(read_x >= xend + x_distance || read_y >= yend + y_distance) 
 4001868:	e0fffe17 	ldw	r3,-8(fp)
 400186c:	e0800217 	ldw	r2,8(fp)
 4001870:	1885883a 	add	r2,r3,r2
 4001874:	e0fff717 	ldw	r3,-36(fp)
 4001878:	1880050e 	bge	r3,r2,4001890 <_Z14vid_move_blockiiiiiiiP16VIP_FRAME_READER+0xcc>
 400187c:	e0ffff17 	ldw	r3,-4(fp)
 4001880:	e0800317 	ldw	r2,12(fp)
 4001884:	1885883a 	add	r2,r3,r2
 4001888:	e0fff817 	ldw	r3,-32(fp)
 400188c:	18800616 	blt	r3,r2,40018a8 <_Z14vid_move_blockiiiiiiiP16VIP_FRAME_READER+0xe4>
        {
	        vid_set_pixel(read_x, read_y, backfill_color, display);
 4001890:	e0800417 	ldw	r2,16(fp)
 4001894:	e1c00517 	ldw	r7,20(fp)
 4001898:	100d883a 	mov	r6,r2
 400189c:	e17ff817 	ldw	r5,-32(fp)
 40018a0:	e13ff717 	ldw	r4,-36(fp)
 40018a4:	4001c300 	call	4001c30 <_Z13vid_set_pixeliijP16VIP_FRAME_READER>
  
  if(x_distance <= 0 && y_distance <= 0) {  
    //Move by rows because they are contiguous in memory (could help speed if in SDRAM)
    for (read_y = ybegin; read_y < yend; read_y++) {
      write_y = read_y + y_distance;
      for(read_x = xbegin; read_x < xend; read_x++) {
 40018a8:	e0bff717 	ldw	r2,-36(fp)
 40018ac:	10800044 	addi	r2,r2,1
 40018b0:	e0bff715 	stw	r2,-36(fp)
 40018b4:	003fda06 	br	4001820 <__alt_mem_epcs_flash_controller_0+0xfb000820>
  int read_x, read_y, write_x, write_y;
  short temp_pixel;
  
  if(x_distance <= 0 && y_distance <= 0) {  
    //Move by rows because they are contiguous in memory (could help speed if in SDRAM)
    for (read_y = ybegin; read_y < yend; read_y++) {
 40018b8:	e0bff817 	ldw	r2,-32(fp)
 40018bc:	10800044 	addi	r2,r2,1
 40018c0:	e0bff815 	stw	r2,-32(fp)
 40018c4:	003fcd06 	br	40017fc <__alt_mem_epcs_flash_controller_0+0xfb0007fc>
	        vid_set_pixel(read_x, read_y, backfill_color, display);
        }
      }
    }
  }
  return (0);
 40018c8:	0005883a 	mov	r2,zero
}
 40018cc:	e037883a 	mov	sp,fp
 40018d0:	dfc00117 	ldw	ra,4(sp)
 40018d4:	df000017 	ldw	fp,0(sp)
 40018d8:	dec00204 	addi	sp,sp,8
 40018dc:	f800283a 	ret

040018e0 <_Z16vid_print_stringiiiPcP16VIP_FRAME_READERS_>:
*           using the specified font and color.
*           Calls vid_print_char
*
******************************************************************/
int vid_print_string(int horiz_offset, int vert_offset, int color, char *font, alt_video_display* display, char string[])
{
 40018e0:	defff604 	addi	sp,sp,-40
 40018e4:	dfc00915 	stw	ra,36(sp)
 40018e8:	df000815 	stw	fp,32(sp)
 40018ec:	df000804 	addi	fp,sp,32
 40018f0:	e13ffc15 	stw	r4,-16(fp)
 40018f4:	e17ffd15 	stw	r5,-12(fp)
 40018f8:	e1bffe15 	stw	r6,-8(fp)
 40018fc:	e1ffff15 	stw	r7,-4(fp)
  int i = 0;
 4001900:	e03ffa15 	stw	zero,-24(fp)
  int original_horiz_offset;

  original_horiz_offset = horiz_offset;
 4001904:	e0bffc17 	ldw	r2,-16(fp)
 4001908:	e0bffb15 	stw	r2,-20(fp)

  // Print until we hit the '\0' char.
  while (string[i]) {
 400190c:	e0bffa17 	ldw	r2,-24(fp)
 4001910:	e0c00317 	ldw	r3,12(fp)
 4001914:	1885883a 	add	r2,r3,r2
 4001918:	10800003 	ldbu	r2,0(r2)
 400191c:	10803fcc 	andi	r2,r2,255
 4001920:	1080201c 	xori	r2,r2,128
 4001924:	10bfe004 	addi	r2,r2,-128
 4001928:	10002926 	beq	r2,zero,40019d0 <_Z16vid_print_stringiiiPcP16VIP_FRAME_READERS_+0xf0>
    //Handle newline char here.
    if (string[i] == '\n') {
 400192c:	e0bffa17 	ldw	r2,-24(fp)
 4001930:	e0c00317 	ldw	r3,12(fp)
 4001934:	1885883a 	add	r2,r3,r2
 4001938:	10800003 	ldbu	r2,0(r2)
 400193c:	10803fcc 	andi	r2,r2,255
 4001940:	1080201c 	xori	r2,r2,128
 4001944:	10bfe004 	addi	r2,r2,-128
 4001948:	10800298 	cmpnei	r2,r2,10
 400194c:	1000091e 	bne	r2,zero,4001974 <_Z16vid_print_stringiiiPcP16VIP_FRAME_READERS_+0x94>
      horiz_offset = original_horiz_offset;
 4001950:	e0bffb17 	ldw	r2,-20(fp)
 4001954:	e0bffc15 	stw	r2,-16(fp)
      vert_offset += 12;
 4001958:	e0bffd17 	ldw	r2,-12(fp)
 400195c:	10800304 	addi	r2,r2,12
 4001960:	e0bffd15 	stw	r2,-12(fp)
      i++;
 4001964:	e0bffa17 	ldw	r2,-24(fp)
 4001968:	10800044 	addi	r2,r2,1
 400196c:	e0bffa15 	stw	r2,-24(fp)
      continue;
 4001970:	00001606 	br	40019cc <_Z16vid_print_stringiiiPcP16VIP_FRAME_READERS_+0xec>
    }
    // Lay down that character and increment our offsets.
    vid_print_char (horiz_offset, vert_offset, color, string[i], font, display);
 4001974:	e0bffa17 	ldw	r2,-24(fp)
 4001978:	e0c00317 	ldw	r3,12(fp)
 400197c:	1885883a 	add	r2,r3,r2
 4001980:	10800003 	ldbu	r2,0(r2)
 4001984:	10c03fcc 	andi	r3,r2,255
 4001988:	18c0201c 	xori	r3,r3,128
 400198c:	18ffe004 	addi	r3,r3,-128
 4001990:	e0800217 	ldw	r2,8(fp)
 4001994:	d8800115 	stw	r2,4(sp)
 4001998:	e0bfff17 	ldw	r2,-4(fp)
 400199c:	d8800015 	stw	r2,0(sp)
 40019a0:	180f883a 	mov	r7,r3
 40019a4:	e1bffe17 	ldw	r6,-8(fp)
 40019a8:	e17ffd17 	ldw	r5,-12(fp)
 40019ac:	e13ffc17 	ldw	r4,-16(fp)
 40019b0:	4001b400 	call	4001b40 <_Z14vid_print_chariiicPcP16VIP_FRAME_READER>
    i++;
 40019b4:	e0bffa17 	ldw	r2,-24(fp)
 40019b8:	10800044 	addi	r2,r2,1
 40019bc:	e0bffa15 	stw	r2,-24(fp)
    horiz_offset += 8;
 40019c0:	e0bffc17 	ldw	r2,-16(fp)
 40019c4:	10800204 	addi	r2,r2,8
 40019c8:	e0bffc15 	stw	r2,-16(fp)
  int original_horiz_offset;

  original_horiz_offset = horiz_offset;

  // Print until we hit the '\0' char.
  while (string[i]) {
 40019cc:	003fcf06 	br	400190c <__alt_mem_epcs_flash_controller_0+0xfb00090c>
    // Lay down that character and increment our offsets.
    vid_print_char (horiz_offset, vert_offset, color, string[i], font, display);
    i++;
    horiz_offset += 8;
  }
  return (0);
 40019d0:	0005883a 	mov	r2,zero
}
 40019d4:	e037883a 	mov	sp,fp
 40019d8:	dfc00117 	ldw	ra,4(sp)
 40019dc:	df000017 	ldw	fp,0(sp)
 40019e0:	dec00204 	addi	sp,sp,8
 40019e4:	f800283a 	ret

040019e8 <_Z12vid_draw_boxiiiiiiP16VIP_FRAME_READER>:
*  points.  The fill parameter tells the function whether or not
*  to fill in the box.  1 = fill, 0 = do not fill.
*
******************************************************************/
int vid_draw_box (int horiz_start, int vert_start, int horiz_end, int vert_end, int color, int fill, alt_video_display* display)
{
 40019e8:	defff704 	addi	sp,sp,-36
 40019ec:	dfc00815 	stw	ra,32(sp)
 40019f0:	df000715 	stw	fp,28(sp)
 40019f4:	df000704 	addi	fp,sp,28
 40019f8:	e13ffc15 	stw	r4,-16(fp)
 40019fc:	e17ffd15 	stw	r5,-12(fp)
 4001a00:	e1bffe15 	stw	r6,-8(fp)
 4001a04:	e1ffff15 	stw	r7,-4(fp)

  // If we want to fill in our box
  if (fill) {
 4001a08:	e0800317 	ldw	r2,12(fp)
 4001a0c:	10000a26 	beq	r2,zero,4001a38 <_Z12vid_draw_boxiiiiiiP16VIP_FRAME_READER+0x50>
     vid_paint_block (horiz_start, vert_start, horiz_end, vert_end, color, display);
 4001a10:	e0800417 	ldw	r2,16(fp)
 4001a14:	d8800115 	stw	r2,4(sp)
 4001a18:	e0800217 	ldw	r2,8(fp)
 4001a1c:	d8800015 	stw	r2,0(sp)
 4001a20:	e1ffff17 	ldw	r7,-4(fp)
 4001a24:	e1bffe17 	ldw	r6,-8(fp)
 4001a28:	e17ffd17 	ldw	r5,-12(fp)
 4001a2c:	e13ffc17 	ldw	r4,-16(fp)
 4001a30:	4001e300 	call	4001e30 <_Z15vid_paint_blockiiiiiP16VIP_FRAME_READER>
 4001a34:	00003c06 	br	4001b28 <_Z12vid_draw_boxiiiiiiP16VIP_FRAME_READER+0x140>
  // If we're not filling in the box, just draw four lines.
  } else {
    vid_draw_line(horiz_start, vert_start, horiz_start, vert_end-1, 1, color, display);
 4001a38:	e0bfff17 	ldw	r2,-4(fp)
 4001a3c:	10ffffc4 	addi	r3,r2,-1
 4001a40:	e0800417 	ldw	r2,16(fp)
 4001a44:	d8800215 	stw	r2,8(sp)
 4001a48:	e0800217 	ldw	r2,8(fp)
 4001a4c:	d8800115 	stw	r2,4(sp)
 4001a50:	00800044 	movi	r2,1
 4001a54:	d8800015 	stw	r2,0(sp)
 4001a58:	180f883a 	mov	r7,r3
 4001a5c:	e1bffc17 	ldw	r6,-16(fp)
 4001a60:	e17ffd17 	ldw	r5,-12(fp)
 4001a64:	e13ffc17 	ldw	r4,-16(fp)
 4001a68:	4003e100 	call	4003e10 <_Z13vid_draw_lineiiiiiiP16VIP_FRAME_READER>
    vid_draw_line(horiz_end-1, vert_start, horiz_end-1, vert_end-1, 1, color, display);
 4001a6c:	e0bffe17 	ldw	r2,-8(fp)
 4001a70:	10ffffc4 	addi	r3,r2,-1
 4001a74:	e0bffe17 	ldw	r2,-8(fp)
 4001a78:	113fffc4 	addi	r4,r2,-1
 4001a7c:	e0bfff17 	ldw	r2,-4(fp)
 4001a80:	117fffc4 	addi	r5,r2,-1
 4001a84:	e0800417 	ldw	r2,16(fp)
 4001a88:	d8800215 	stw	r2,8(sp)
 4001a8c:	e0800217 	ldw	r2,8(fp)
 4001a90:	d8800115 	stw	r2,4(sp)
 4001a94:	00800044 	movi	r2,1
 4001a98:	d8800015 	stw	r2,0(sp)
 4001a9c:	280f883a 	mov	r7,r5
 4001aa0:	200d883a 	mov	r6,r4
 4001aa4:	e17ffd17 	ldw	r5,-12(fp)
 4001aa8:	1809883a 	mov	r4,r3
 4001aac:	4003e100 	call	4003e10 <_Z13vid_draw_lineiiiiiiP16VIP_FRAME_READER>
    vid_draw_line(horiz_start, vert_start, horiz_end-1, vert_start, 1, color, display);
 4001ab0:	e0bffe17 	ldw	r2,-8(fp)
 4001ab4:	10ffffc4 	addi	r3,r2,-1
 4001ab8:	e0800417 	ldw	r2,16(fp)
 4001abc:	d8800215 	stw	r2,8(sp)
 4001ac0:	e0800217 	ldw	r2,8(fp)
 4001ac4:	d8800115 	stw	r2,4(sp)
 4001ac8:	00800044 	movi	r2,1
 4001acc:	d8800015 	stw	r2,0(sp)
 4001ad0:	e1fffd17 	ldw	r7,-12(fp)
 4001ad4:	180d883a 	mov	r6,r3
 4001ad8:	e17ffd17 	ldw	r5,-12(fp)
 4001adc:	e13ffc17 	ldw	r4,-16(fp)
 4001ae0:	4003e100 	call	4003e10 <_Z13vid_draw_lineiiiiiiP16VIP_FRAME_READER>
    vid_draw_line(horiz_start, vert_end-1, horiz_end-1, vert_end-1, 1, color, display);
 4001ae4:	e0bfff17 	ldw	r2,-4(fp)
 4001ae8:	10ffffc4 	addi	r3,r2,-1
 4001aec:	e0bffe17 	ldw	r2,-8(fp)
 4001af0:	113fffc4 	addi	r4,r2,-1
 4001af4:	e0bfff17 	ldw	r2,-4(fp)
 4001af8:	117fffc4 	addi	r5,r2,-1
 4001afc:	e0800417 	ldw	r2,16(fp)
 4001b00:	d8800215 	stw	r2,8(sp)
 4001b04:	e0800217 	ldw	r2,8(fp)
 4001b08:	d8800115 	stw	r2,4(sp)
 4001b0c:	00800044 	movi	r2,1
 4001b10:	d8800015 	stw	r2,0(sp)
 4001b14:	280f883a 	mov	r7,r5
 4001b18:	200d883a 	mov	r6,r4
 4001b1c:	180b883a 	mov	r5,r3
 4001b20:	e13ffc17 	ldw	r4,-16(fp)
 4001b24:	4003e100 	call	4003e10 <_Z13vid_draw_lineiiiiiiP16VIP_FRAME_READER>
  }

  return (0);
 4001b28:	0005883a 	mov	r2,zero
}
 4001b2c:	e037883a 	mov	sp,fp
 4001b30:	dfc00117 	ldw	ra,4(sp)
 4001b34:	df000017 	ldw	fp,0(sp)
 4001b38:	dec00204 	addi	sp,sp,8
 4001b3c:	f800283a 	ret

04001b40 <_Z14vid_print_chariiicPcP16VIP_FRAME_READER>:
*           screen using the specified font and color.
*
******************************************************************/

int vid_print_char (int horiz_offset, int vert_offset, int color, char character, char *font, alt_video_display* display)
{
 4001b40:	defff704 	addi	sp,sp,-36
 4001b44:	dfc00815 	stw	ra,32(sp)
 4001b48:	df000715 	stw	fp,28(sp)
 4001b4c:	df000704 	addi	fp,sp,28
 4001b50:	e13ffc15 	stw	r4,-16(fp)
 4001b54:	e17ffd15 	stw	r5,-12(fp)
 4001b58:	e1bffe15 	stw	r6,-8(fp)
 4001b5c:	3805883a 	mov	r2,r7
 4001b60:	e0bfff05 	stb	r2,-4(fp)
  int i, j;
  
  char temp_char, char_row;

  // Convert the ASCII value to an array offset
  temp_char = (character - 0x20);
 4001b64:	e0bfff03 	ldbu	r2,-4(fp)
 4001b68:	10bff804 	addi	r2,r2,-32
 4001b6c:	e0bffb05 	stb	r2,-20(fp)

  //Each character is 8 pixels wide and 11 tall.
  for(i = 0; i < 11; i++) {
 4001b70:	e03ff915 	stw	zero,-28(fp)
 4001b74:	e0bff917 	ldw	r2,-28(fp)
 4001b78:	108002c8 	cmpgei	r2,r2,11
 4001b7c:	1000261e 	bne	r2,zero,4001c18 <_Z14vid_print_chariiicPcP16VIP_FRAME_READER+0xd8>
      char_row = *(font + (temp_char * FONT_10PT_ROW) + i);
 4001b80:	e0bffb07 	ldb	r2,-20(fp)
 4001b84:	108002e4 	muli	r2,r2,11
 4001b88:	1007883a 	mov	r3,r2
 4001b8c:	e0bff917 	ldw	r2,-28(fp)
 4001b90:	1885883a 	add	r2,r3,r2
 4001b94:	e0c00217 	ldw	r3,8(fp)
 4001b98:	1885883a 	add	r2,r3,r2
 4001b9c:	10800003 	ldbu	r2,0(r2)
 4001ba0:	e0bffb45 	stb	r2,-19(fp)
    for (j = 0; j < 8; j++) {
 4001ba4:	e03ffa15 	stw	zero,-24(fp)
 4001ba8:	e0bffa17 	ldw	r2,-24(fp)
 4001bac:	10800208 	cmpgei	r2,r2,8
 4001bb0:	1000151e 	bne	r2,zero,4001c08 <_Z14vid_print_chariiicPcP16VIP_FRAME_READER+0xc8>
      //If the font table says the pixel in this location is on for this character, then set it.
      if (char_row & (((unsigned char)0x80) >> j)) {
 4001bb4:	e0fffb47 	ldb	r3,-19(fp)
 4001bb8:	01002004 	movi	r4,128
 4001bbc:	e0bffa17 	ldw	r2,-24(fp)
 4001bc0:	2085d83a 	sra	r2,r4,r2
 4001bc4:	1884703a 	and	r2,r3,r2
 4001bc8:	10000b26 	beq	r2,zero,4001bf8 <_Z14vid_print_chariiicPcP16VIP_FRAME_READER+0xb8>
        vid_set_pixel((horiz_offset + j), (vert_offset + i), color, display); // plot the pixel
 4001bcc:	e0fffc17 	ldw	r3,-16(fp)
 4001bd0:	e0bffa17 	ldw	r2,-24(fp)
 4001bd4:	1889883a 	add	r4,r3,r2
 4001bd8:	e0fffd17 	ldw	r3,-12(fp)
 4001bdc:	e0bff917 	ldw	r2,-28(fp)
 4001be0:	1885883a 	add	r2,r3,r2
 4001be4:	e0fffe17 	ldw	r3,-8(fp)
 4001be8:	e1c00317 	ldw	r7,12(fp)
 4001bec:	180d883a 	mov	r6,r3
 4001bf0:	100b883a 	mov	r5,r2
 4001bf4:	4001c300 	call	4001c30 <_Z13vid_set_pixeliijP16VIP_FRAME_READER>
  temp_char = (character - 0x20);

  //Each character is 8 pixels wide and 11 tall.
  for(i = 0; i < 11; i++) {
      char_row = *(font + (temp_char * FONT_10PT_ROW) + i);
    for (j = 0; j < 8; j++) {
 4001bf8:	e0bffa17 	ldw	r2,-24(fp)
 4001bfc:	10800044 	addi	r2,r2,1
 4001c00:	e0bffa15 	stw	r2,-24(fp)
 4001c04:	003fe806 	br	4001ba8 <__alt_mem_epcs_flash_controller_0+0xfb000ba8>

  // Convert the ASCII value to an array offset
  temp_char = (character - 0x20);

  //Each character is 8 pixels wide and 11 tall.
  for(i = 0; i < 11; i++) {
 4001c08:	e0bff917 	ldw	r2,-28(fp)
 4001c0c:	10800044 	addi	r2,r2,1
 4001c10:	e0bff915 	stw	r2,-28(fp)
 4001c14:	003fd706 	br	4001b74 <__alt_mem_epcs_flash_controller_0+0xfb000b74>
      if (char_row & (((unsigned char)0x80) >> j)) {
        vid_set_pixel((horiz_offset + j), (vert_offset + i), color, display); // plot the pixel
      }
    }
  }
  return(0);
 4001c18:	0005883a 	mov	r2,zero
}
 4001c1c:	e037883a 	mov	sp,fp
 4001c20:	dfc00117 	ldw	ra,4(sp)
 4001c24:	df000017 	ldw	fp,0(sp)
 4001c28:	dec00204 	addi	sp,sp,8
 4001c2c:	f800283a 	ret

04001c30 <_Z13vid_set_pixeliijP16VIP_FRAME_READER>:
*           efficient when painting large areas of the screen.
*
******************************************************************/

void vid_set_pixel(int horiz, int vert, unsigned int color, alt_video_display* display)
{
 4001c30:	defff904 	addi	sp,sp,-28
 4001c34:	dfc00615 	stw	ra,24(sp)
 4001c38:	df000515 	stw	fp,20(sp)
 4001c3c:	df000504 	addi	fp,sp,20
 4001c40:	e13ffc15 	stw	r4,-16(fp)
 4001c44:	e17ffd15 	stw	r5,-12(fp)
 4001c48:	e1bffe15 	stw	r6,-8(fp)
 4001c4c:	e1ffff15 	stw	r7,-4(fp)
  int addr;
  
  if( display->color_depth == 32 )
 4001c50:	e0bfff17 	ldw	r2,-4(fp)
 4001c54:	10800417 	ldw	r2,16(r2)
 4001c58:	10800818 	cmpnei	r2,r2,32
 4001c5c:	1000141e 	bne	r2,zero,4001cb0 <_Z13vid_set_pixeliijP16VIP_FRAME_READER+0x80>
  {
//  	addr = ( ( (int)(display->buffer_ptrs[display->buffer_being_written]) )+ (vert * (display->width * 4)) + horiz * 4);
    addr = ( ( (int)(VIPFR_GetDrawFrame(display)) )+ (vert * (display->width * 4)) + horiz * 4);
 4001c60:	e13fff17 	ldw	r4,-4(fp)
 4001c64:	400919c0 	call	400919c <_Z18VIPFR_GetDrawFrameP16VIP_FRAME_READER>
 4001c68:	1007883a 	mov	r3,r2
 4001c6c:	e0bfff17 	ldw	r2,-4(fp)
 4001c70:	10800517 	ldw	r2,20(r2)
 4001c74:	1085883a 	add	r2,r2,r2
 4001c78:	1085883a 	add	r2,r2,r2
 4001c7c:	1009883a 	mov	r4,r2
 4001c80:	e0bffd17 	ldw	r2,-12(fp)
 4001c84:	2085383a 	mul	r2,r4,r2
 4001c88:	1887883a 	add	r3,r3,r2
 4001c8c:	e0bffc17 	ldw	r2,-16(fp)
 4001c90:	1085883a 	add	r2,r2,r2
 4001c94:	1085883a 	add	r2,r2,r2
 4001c98:	1885883a 	add	r2,r3,r2
 4001c9c:	e0bffb15 	stw	r2,-20(fp)
		IOWR_32DIRECT( addr, 0, (unsigned int)(color));
 4001ca0:	e0bffb17 	ldw	r2,-20(fp)
 4001ca4:	e0fffe17 	ldw	r3,-8(fp)
 4001ca8:	10c00035 	stwio	r3,0(r2)
  	addr = ( ( (int)(VIPFR_GetDrawFrame(display)) )+ (vert * (display->width * 2)) + horiz * 2);
  	IOWR_16DIRECT( addr, 0, (int)(color));
	}


}
 4001cac:	00003d06 	br	4001da4 <_Z13vid_set_pixeliijP16VIP_FRAME_READER+0x174>
//  	addr = ( ( (int)(display->buffer_ptrs[display->buffer_being_written]) )+ (vert * (display->width * 4)) + horiz * 4);
    addr = ( ( (int)(VIPFR_GetDrawFrame(display)) )+ (vert * (display->width * 4)) + horiz * 4);
		IOWR_32DIRECT( addr, 0, (unsigned int)(color));
  }
  
  else if( display->color_depth == 24 )
 4001cb0:	e0bfff17 	ldw	r2,-4(fp)
 4001cb4:	10800417 	ldw	r2,16(r2)
 4001cb8:	10800618 	cmpnei	r2,r2,24
 4001cbc:	1000241e 	bne	r2,zero,4001d50 <_Z13vid_set_pixeliijP16VIP_FRAME_READER+0x120>
  {
  	addr = ( ( (int)(VIPFR_GetDrawFrame(display)) )+ (vert * (display->width * 3)) + horiz * 3);
 4001cc0:	e13fff17 	ldw	r4,-4(fp)
 4001cc4:	400919c0 	call	400919c <_Z18VIPFR_GetDrawFrameP16VIP_FRAME_READER>
 4001cc8:	1009883a 	mov	r4,r2
 4001ccc:	e0bfff17 	ldw	r2,-4(fp)
 4001cd0:	10c00517 	ldw	r3,20(r2)
 4001cd4:	1805883a 	mov	r2,r3
 4001cd8:	1085883a 	add	r2,r2,r2
 4001cdc:	10c7883a 	add	r3,r2,r3
 4001ce0:	e0bffd17 	ldw	r2,-12(fp)
 4001ce4:	1885383a 	mul	r2,r3,r2
 4001ce8:	2089883a 	add	r4,r4,r2
 4001cec:	e0fffc17 	ldw	r3,-16(fp)
 4001cf0:	1805883a 	mov	r2,r3
 4001cf4:	1085883a 	add	r2,r2,r2
 4001cf8:	10c5883a 	add	r2,r2,r3
 4001cfc:	2085883a 	add	r2,r4,r2
 4001d00:	e0bffb15 	stw	r2,-20(fp)
		IOWR_8DIRECT( addr, 0, (unsigned char)(color));
 4001d04:	e0bffb17 	ldw	r2,-20(fp)
 4001d08:	e0fffe17 	ldw	r3,-8(fp)
 4001d0c:	18c03fcc 	andi	r3,r3,255
 4001d10:	10c00025 	stbio	r3,0(r2)
 		IOWR_8DIRECT( addr+1, 0, (unsigned char)(color >> 8));
 4001d14:	e0bffb17 	ldw	r2,-20(fp)
 4001d18:	10800044 	addi	r2,r2,1
 4001d1c:	1007883a 	mov	r3,r2
 4001d20:	e0bffe17 	ldw	r2,-8(fp)
 4001d24:	1004d23a 	srli	r2,r2,8
 4001d28:	10803fcc 	andi	r2,r2,255
 4001d2c:	18800025 	stbio	r2,0(r3)
    IOWR_8DIRECT( addr+2, 0, (unsigned char)(color >> 16));
 4001d30:	e0bffb17 	ldw	r2,-20(fp)
 4001d34:	10800084 	addi	r2,r2,2
 4001d38:	1007883a 	mov	r3,r2
 4001d3c:	e0bffe17 	ldw	r2,-8(fp)
 4001d40:	1004d43a 	srli	r2,r2,16
 4001d44:	10803fcc 	andi	r2,r2,255
 4001d48:	18800025 	stbio	r2,0(r3)
  	addr = ( ( (int)(VIPFR_GetDrawFrame(display)) )+ (vert * (display->width * 2)) + horiz * 2);
  	IOWR_16DIRECT( addr, 0, (int)(color));
	}


}
 4001d4c:	00001506 	br	4001da4 <_Z13vid_set_pixeliijP16VIP_FRAME_READER+0x174>
		IOWR_8DIRECT( addr, 0, (unsigned char)(color));
 		IOWR_8DIRECT( addr+1, 0, (unsigned char)(color >> 8));
    IOWR_8DIRECT( addr+2, 0, (unsigned char)(color >> 16));
  }
  
  else if( display->color_depth == 16 )
 4001d50:	e0bfff17 	ldw	r2,-4(fp)
 4001d54:	10800417 	ldw	r2,16(r2)
 4001d58:	10800418 	cmpnei	r2,r2,16
 4001d5c:	1000111e 	bne	r2,zero,4001da4 <_Z13vid_set_pixeliijP16VIP_FRAME_READER+0x174>
  {
  	addr = ( ( (int)(VIPFR_GetDrawFrame(display)) )+ (vert * (display->width * 2)) + horiz * 2);
 4001d60:	e13fff17 	ldw	r4,-4(fp)
 4001d64:	400919c0 	call	400919c <_Z18VIPFR_GetDrawFrameP16VIP_FRAME_READER>
 4001d68:	1007883a 	mov	r3,r2
 4001d6c:	e0bfff17 	ldw	r2,-4(fp)
 4001d70:	10800517 	ldw	r2,20(r2)
 4001d74:	1085883a 	add	r2,r2,r2
 4001d78:	1009883a 	mov	r4,r2
 4001d7c:	e0bffd17 	ldw	r2,-12(fp)
 4001d80:	2085383a 	mul	r2,r4,r2
 4001d84:	1887883a 	add	r3,r3,r2
 4001d88:	e0bffc17 	ldw	r2,-16(fp)
 4001d8c:	1085883a 	add	r2,r2,r2
 4001d90:	1885883a 	add	r2,r3,r2
 4001d94:	e0bffb15 	stw	r2,-20(fp)
  	IOWR_16DIRECT( addr, 0, (int)(color));
 4001d98:	e0bffb17 	ldw	r2,-20(fp)
 4001d9c:	e0fffe17 	ldw	r3,-8(fp)
 4001da0:	10c0002d 	sthio	r3,0(r2)
	}


}
 4001da4:	0001883a 	nop
 4001da8:	e037883a 	mov	sp,fp
 4001dac:	dfc00117 	ldw	ra,4(sp)
 4001db0:	df000017 	ldw	fp,0(sp)
 4001db4:	dec00204 	addi	sp,sp,8
 4001db8:	f800283a 	ret

04001dbc <_Z13vid_get_pixeliiP16VIP_FRAME_READER>:
*  Purpose: Reads the color of the pixel at the given coordinates
*
******************************************************************/

short vid_get_pixel(int horiz, int vert, alt_video_display* display)
{
 4001dbc:	defffa04 	addi	sp,sp,-24
 4001dc0:	dfc00515 	stw	ra,20(sp)
 4001dc4:	df000415 	stw	fp,16(sp)
 4001dc8:	df000404 	addi	fp,sp,16
 4001dcc:	e13ffd15 	stw	r4,-12(fp)
 4001dd0:	e17ffe15 	stw	r5,-8(fp)
 4001dd4:	e1bfff15 	stw	r6,-4(fp)
  int addr;
  
  addr = ( ( (int)(VIPFR_GetDrawFrame(display)) )+ (vert * (display->width * 2)) + horiz * 2);
 4001dd8:	e13fff17 	ldw	r4,-4(fp)
 4001ddc:	400919c0 	call	400919c <_Z18VIPFR_GetDrawFrameP16VIP_FRAME_READER>
 4001de0:	1007883a 	mov	r3,r2
 4001de4:	e0bfff17 	ldw	r2,-4(fp)
 4001de8:	10800517 	ldw	r2,20(r2)
 4001dec:	1085883a 	add	r2,r2,r2
 4001df0:	1009883a 	mov	r4,r2
 4001df4:	e0bffe17 	ldw	r2,-8(fp)
 4001df8:	2085383a 	mul	r2,r4,r2
 4001dfc:	1887883a 	add	r3,r3,r2
 4001e00:	e0bffd17 	ldw	r2,-12(fp)
 4001e04:	1085883a 	add	r2,r2,r2
 4001e08:	1885883a 	add	r2,r3,r2
 4001e0c:	e0bffc15 	stw	r2,-16(fp)
  return(IORD_16DIRECT(addr, 0));
 4001e10:	e0bffc17 	ldw	r2,-16(fp)
 4001e14:	1080002b 	ldhuio	r2,0(r2)
 4001e18:	10bfffcc 	andi	r2,r2,65535

}
 4001e1c:	e037883a 	mov	sp,fp
 4001e20:	dfc00117 	ldw	ra,4(sp)
 4001e24:	df000017 	ldw	fp,0(sp)
 4001e28:	dec00204 	addi	sp,sp,8
 4001e2c:	f800283a 	ret

04001e30 <_Z15vid_paint_blockiiiiiP16VIP_FRAME_READER>:
*           The color parameter must contain two pixel's worth
*           (32 bits).
*
******************************************************************/
void vid_paint_block (int Hstart,int Vstart, int Hend, int Vend, int color, alt_video_display* display)
{
 4001e30:	defff504 	addi	sp,sp,-44
 4001e34:	dfc00a15 	stw	ra,40(sp)
 4001e38:	df000915 	stw	fp,36(sp)
 4001e3c:	df000904 	addi	fp,sp,36
 4001e40:	e13ffc15 	stw	r4,-16(fp)
 4001e44:	e17ffd15 	stw	r5,-12(fp)
 4001e48:	e1bffe15 	stw	r6,-8(fp)
 4001e4c:	e1ffff15 	stw	r7,-4(fp)
  int i;
  unsigned int addr; // richard add unsigned
  int bytes_per_line, bytes_per_pixel;
  char* line;
  
  bytes_per_pixel = (display->color_depth / 8);
 4001e50:	e0800317 	ldw	r2,12(fp)
 4001e54:	10800417 	ldw	r2,16(r2)
 4001e58:	1000010e 	bge	r2,zero,4001e60 <_Z15vid_paint_blockiiiiiP16VIP_FRAME_READER+0x30>
 4001e5c:	108001c4 	addi	r2,r2,7
 4001e60:	1005d0fa 	srai	r2,r2,3
 4001e64:	e0bff915 	stw	r2,-28(fp)
  bytes_per_line = ((Hend - Hstart) * bytes_per_pixel);
 4001e68:	e0fffe17 	ldw	r3,-8(fp)
 4001e6c:	e0bffc17 	ldw	r2,-16(fp)
 4001e70:	1887c83a 	sub	r3,r3,r2
 4001e74:	e0bff917 	ldw	r2,-28(fp)
 4001e78:	1885383a 	mul	r2,r3,r2
 4001e7c:	e0bffa15 	stw	r2,-24(fp)

  line = (char *)malloc(bytes_per_line + 12);
 4001e80:	e0bffa17 	ldw	r2,-24(fp)
 4001e84:	10800304 	addi	r2,r2,12
 4001e88:	1009883a 	mov	r4,r2
 4001e8c:	400deb40 	call	400deb4 <malloc>
 4001e90:	e0bffb15 	stw	r2,-20(fp)

	if(display->color_depth == 16)
 4001e94:	e0800317 	ldw	r2,12(fp)
 4001e98:	10800417 	ldw	r2,16(r2)
 4001e9c:	10800418 	cmpnei	r2,r2,16
 4001ea0:	1000141e 	bne	r2,zero,4001ef4 <_Z15vid_paint_blockiiiiiP16VIP_FRAME_READER+0xc4>
	{
    for (i = 0; i < bytes_per_line; i+=2) 
 4001ea4:	e03ff715 	stw	zero,-36(fp)
 4001ea8:	e0fff717 	ldw	r3,-36(fp)
 4001eac:	e0bffa17 	ldw	r2,-24(fp)
 4001eb0:	1880400e 	bge	r3,r2,4001fb4 <_Z15vid_paint_blockiiiiiP16VIP_FRAME_READER+0x184>
    {
      *(line + i) = (unsigned char)color;
 4001eb4:	e0bff717 	ldw	r2,-36(fp)
 4001eb8:	e0fffb17 	ldw	r3,-20(fp)
 4001ebc:	1885883a 	add	r2,r3,r2
 4001ec0:	e0c00217 	ldw	r3,8(fp)
 4001ec4:	10c00005 	stb	r3,0(r2)
      *(line + i + 1) = (unsigned char)(color >> 8);
 4001ec8:	e0bff717 	ldw	r2,-36(fp)
 4001ecc:	10800044 	addi	r2,r2,1
 4001ed0:	e0fffb17 	ldw	r3,-20(fp)
 4001ed4:	1885883a 	add	r2,r3,r2
 4001ed8:	e0c00217 	ldw	r3,8(fp)
 4001edc:	1807d23a 	srai	r3,r3,8
 4001ee0:	10c00005 	stb	r3,0(r2)

  line = (char *)malloc(bytes_per_line + 12);

	if(display->color_depth == 16)
	{
    for (i = 0; i < bytes_per_line; i+=2) 
 4001ee4:	e0bff717 	ldw	r2,-36(fp)
 4001ee8:	10800084 	addi	r2,r2,2
 4001eec:	e0bff715 	stw	r2,-36(fp)
 4001ef0:	003fed06 	br	4001ea8 <__alt_mem_epcs_flash_controller_0+0xfb000ea8>
    {
      *(line + i) = (unsigned char)color;
      *(line + i + 1) = (unsigned char)(color >> 8);
    }
  }
  else if(display->color_depth == 24)
 4001ef4:	e0800317 	ldw	r2,12(fp)
 4001ef8:	10800417 	ldw	r2,16(r2)
 4001efc:	10800618 	cmpnei	r2,r2,24
 4001f00:	10001b1e 	bne	r2,zero,4001f70 <_Z15vid_paint_blockiiiiiP16VIP_FRAME_READER+0x140>
  { 
    for (i = 0; i < bytes_per_line; i+=3) 
 4001f04:	e03ff715 	stw	zero,-36(fp)
 4001f08:	e0fff717 	ldw	r3,-36(fp)
 4001f0c:	e0bffa17 	ldw	r2,-24(fp)
 4001f10:	1880280e 	bge	r3,r2,4001fb4 <_Z15vid_paint_blockiiiiiP16VIP_FRAME_READER+0x184>
    {
      *(line + i) = (unsigned char)color;
 4001f14:	e0bff717 	ldw	r2,-36(fp)
 4001f18:	e0fffb17 	ldw	r3,-20(fp)
 4001f1c:	1885883a 	add	r2,r3,r2
 4001f20:	e0c00217 	ldw	r3,8(fp)
 4001f24:	10c00005 	stb	r3,0(r2)
      *(line + i + 1) = (unsigned char)(color >> 8);
 4001f28:	e0bff717 	ldw	r2,-36(fp)
 4001f2c:	10800044 	addi	r2,r2,1
 4001f30:	e0fffb17 	ldw	r3,-20(fp)
 4001f34:	1885883a 	add	r2,r3,r2
 4001f38:	e0c00217 	ldw	r3,8(fp)
 4001f3c:	1807d23a 	srai	r3,r3,8
 4001f40:	10c00005 	stb	r3,0(r2)
      *(line + i + 2) = (unsigned char)(color >> 16);
 4001f44:	e0bff717 	ldw	r2,-36(fp)
 4001f48:	10800084 	addi	r2,r2,2
 4001f4c:	e0fffb17 	ldw	r3,-20(fp)
 4001f50:	1885883a 	add	r2,r3,r2
 4001f54:	e0c00217 	ldw	r3,8(fp)
 4001f58:	1807d43a 	srai	r3,r3,16
 4001f5c:	10c00005 	stb	r3,0(r2)
      *(line + i + 1) = (unsigned char)(color >> 8);
    }
  }
  else if(display->color_depth == 24)
  { 
    for (i = 0; i < bytes_per_line; i+=3) 
 4001f60:	e0bff717 	ldw	r2,-36(fp)
 4001f64:	108000c4 	addi	r2,r2,3
 4001f68:	e0bff715 	stw	r2,-36(fp)
 4001f6c:	003fe606 	br	4001f08 <__alt_mem_epcs_flash_controller_0+0xfb000f08>
      *(line + i) = (unsigned char)color;
      *(line + i + 1) = (unsigned char)(color >> 8);
      *(line + i + 2) = (unsigned char)(color >> 16);
    }
  }
  else if(display->color_depth == 32)
 4001f70:	e0800317 	ldw	r2,12(fp)
 4001f74:	10800417 	ldw	r2,16(r2)
 4001f78:	10800818 	cmpnei	r2,r2,32
 4001f7c:	10000d1e 	bne	r2,zero,4001fb4 <_Z15vid_paint_blockiiiiiP16VIP_FRAME_READER+0x184>
  { 
    for (i = 0; i < bytes_per_line; i+=4) 
 4001f80:	e03ff715 	stw	zero,-36(fp)
 4001f84:	e0fff717 	ldw	r3,-36(fp)
 4001f88:	e0bffa17 	ldw	r2,-24(fp)
 4001f8c:	1880090e 	bge	r3,r2,4001fb4 <_Z15vid_paint_blockiiiiiP16VIP_FRAME_READER+0x184>
    {
      // Does the right hand side of this assignment determine the size?
      *(int*)(line + i) = (unsigned int)color;
 4001f90:	e0bff717 	ldw	r2,-36(fp)
 4001f94:	e0fffb17 	ldw	r3,-20(fp)
 4001f98:	1885883a 	add	r2,r3,r2
 4001f9c:	e0c00217 	ldw	r3,8(fp)
 4001fa0:	10c00015 	stw	r3,0(r2)
      *(line + i + 2) = (unsigned char)(color >> 16);
    }
  }
  else if(display->color_depth == 32)
  { 
    for (i = 0; i < bytes_per_line; i+=4) 
 4001fa4:	e0bff717 	ldw	r2,-36(fp)
 4001fa8:	10800104 	addi	r2,r2,4
 4001fac:	e0bff715 	stw	r2,-36(fp)
 4001fb0:	003ff406 	br	4001f84 <__alt_mem_epcs_flash_controller_0+0xfb000f84>
      *(int*)(line + i) = (unsigned int)color;
    }
  }
  
  /* Initial Address */
  addr = (int)(VIPFR_GetDrawFrame(display)) + ((Vstart * (display->width * bytes_per_pixel)) + (Hstart * bytes_per_pixel));
 4001fb4:	e1000317 	ldw	r4,12(fp)
 4001fb8:	400919c0 	call	400919c <_Z18VIPFR_GetDrawFrameP16VIP_FRAME_READER>
 4001fbc:	100b883a 	mov	r5,r2
 4001fc0:	e0800317 	ldw	r2,12(fp)
 4001fc4:	10c00517 	ldw	r3,20(r2)
 4001fc8:	e0bff917 	ldw	r2,-28(fp)
 4001fcc:	1887383a 	mul	r3,r3,r2
 4001fd0:	e0bffd17 	ldw	r2,-12(fp)
 4001fd4:	1887383a 	mul	r3,r3,r2
 4001fd8:	e13ffc17 	ldw	r4,-16(fp)
 4001fdc:	e0bff917 	ldw	r2,-28(fp)
 4001fe0:	2085383a 	mul	r2,r4,r2
 4001fe4:	1885883a 	add	r2,r3,r2
 4001fe8:	2885883a 	add	r2,r5,r2
 4001fec:	e0bff815 	stw	r2,-32(fp)
  
  for (i = Vstart; i < Vend; i++)
 4001ff0:	e0bffd17 	ldw	r2,-12(fp)
 4001ff4:	e0bff715 	stw	r2,-36(fp)
 4001ff8:	e0fff717 	ldw	r3,-36(fp)
 4001ffc:	e0bfff17 	ldw	r2,-4(fp)
 4002000:	1880120e 	bge	r3,r2,400204c <_Z15vid_paint_blockiiiiiP16VIP_FRAME_READER+0x21c>
  {
    memcpy( (void*)addr, line, bytes_per_line );
 4002004:	e0bff817 	ldw	r2,-32(fp)
 4002008:	e0fffa17 	ldw	r3,-24(fp)
 400200c:	180d883a 	mov	r6,r3
 4002010:	e17ffb17 	ldw	r5,-20(fp)
 4002014:	1009883a 	mov	r4,r2
 4002018:	400e6e80 	call	400e6e8 <memcpy>
    addr += (display->width * bytes_per_pixel);
 400201c:	e0800317 	ldw	r2,12(fp)
 4002020:	10c00517 	ldw	r3,20(r2)
 4002024:	e0bff917 	ldw	r2,-28(fp)
 4002028:	1885383a 	mul	r2,r3,r2
 400202c:	1007883a 	mov	r3,r2
 4002030:	e0bff817 	ldw	r2,-32(fp)
 4002034:	10c5883a 	add	r2,r2,r3
 4002038:	e0bff815 	stw	r2,-32(fp)
  }
  
  /* Initial Address */
  addr = (int)(VIPFR_GetDrawFrame(display)) + ((Vstart * (display->width * bytes_per_pixel)) + (Hstart * bytes_per_pixel));
  
  for (i = Vstart; i < Vend; i++)
 400203c:	e0bff717 	ldw	r2,-36(fp)
 4002040:	10800044 	addi	r2,r2,1
 4002044:	e0bff715 	stw	r2,-36(fp)
 4002048:	003feb06 	br	4001ff8 <__alt_mem_epcs_flash_controller_0+0xfb000ff8>
  {
    memcpy( (void*)addr, line, bytes_per_line );
    addr += (display->width * bytes_per_pixel);
  }
  free (line);
 400204c:	e13ffb17 	ldw	r4,-20(fp)
 4002050:	400dec80 	call	400dec8 <free>
}
 4002054:	0001883a 	nop
 4002058:	e037883a 	mov	sp,fp
 400205c:	dfc00117 	ldw	ra,4(sp)
 4002060:	df000017 	ldw	fp,0(sp)
 4002064:	dec00204 	addi	sp,sp,8
 4002068:	f800283a 	ret

0400206c <_Z19vid_draw_horiz_linessiiP16VIP_FRAME_READER>:
*  Purpose: Draws a horizontal line on the screen quickly.
*           Good for filling stuff.
*
******************************************************************/
void vid_draw_horiz_line (short Hstart, short Hend, int V, int color, alt_video_display* display)
{
 400206c:	defff504 	addi	sp,sp,-44
 4002070:	dfc00a15 	stw	ra,40(sp)
 4002074:	df000915 	stw	fp,36(sp)
 4002078:	df000904 	addi	fp,sp,36
 400207c:	2007883a 	mov	r3,r4
 4002080:	2805883a 	mov	r2,r5
 4002084:	e1bffe15 	stw	r6,-8(fp)
 4002088:	e1ffff15 	stw	r7,-4(fp)
 400208c:	e0fffc0d 	sth	r3,-16(fp)
 4002090:	e0bffd0d 	sth	r2,-12(fp)

  int i;
  int addr;
  int bytes_per_line;

  char *fast_buffer = (char *)malloc(1024 * 3);
 4002094:	01030004 	movi	r4,3072
 4002098:	400deb40 	call	400deb4 <malloc>
 400209c:	e0bff815 	stw	r2,-32(fp)

  if( Hstart > Hend )
 40020a0:	e0bffc0f 	ldh	r2,-16(fp)
 40020a4:	e0fffd0f 	ldh	r3,-12(fp)
 40020a8:	1880060e 	bge	r3,r2,40020c4 <_Z19vid_draw_horiz_linessiiP16VIP_FRAME_READER+0x58>
  {
    short temp = Hstart;
 40020ac:	e0bffc0b 	ldhu	r2,-16(fp)
 40020b0:	e0bff90d 	sth	r2,-28(fp)
    Hstart = Hend;
 40020b4:	e0bffd0b 	ldhu	r2,-12(fp)
 40020b8:	e0bffc0d 	sth	r2,-16(fp)
    Hend = temp;
 40020bc:	e0bff90b 	ldhu	r2,-28(fp)
 40020c0:	e0bffd0d 	sth	r2,-12(fp)
  }
  
  if(display->color_depth == 32)
 40020c4:	e0800217 	ldw	r2,8(fp)
 40020c8:	10800417 	ldw	r2,16(r2)
 40020cc:	10800818 	cmpnei	r2,r2,32
 40020d0:	1000291e 	bne	r2,zero,4002178 <_Z19vid_draw_horiz_linessiiP16VIP_FRAME_READER+0x10c>
  { 
    addr = (int)(VIPFR_GetDrawFrame(display)) + ((V * (display->width * 4)) + (Hstart * 4));
 40020d4:	e1000217 	ldw	r4,8(fp)
 40020d8:	400919c0 	call	400919c <_Z18VIPFR_GetDrawFrameP16VIP_FRAME_READER>
 40020dc:	1009883a 	mov	r4,r2
 40020e0:	e0800217 	ldw	r2,8(fp)
 40020e4:	10800517 	ldw	r2,20(r2)
 40020e8:	1085883a 	add	r2,r2,r2
 40020ec:	1085883a 	add	r2,r2,r2
 40020f0:	1007883a 	mov	r3,r2
 40020f4:	e0bffe17 	ldw	r2,-8(fp)
 40020f8:	1887383a 	mul	r3,r3,r2
 40020fc:	e0bffc0f 	ldh	r2,-16(fp)
 4002100:	1085883a 	add	r2,r2,r2
 4002104:	1085883a 	add	r2,r2,r2
 4002108:	1885883a 	add	r2,r3,r2
 400210c:	2085883a 	add	r2,r4,r2
 4002110:	e0bffa15 	stw	r2,-24(fp)
    bytes_per_line = ((Hend - Hstart) * 4);
 4002114:	e0fffd0f 	ldh	r3,-12(fp)
 4002118:	e0bffc0f 	ldh	r2,-16(fp)
 400211c:	1885c83a 	sub	r2,r3,r2
 4002120:	1085883a 	add	r2,r2,r2
 4002124:	1085883a 	add	r2,r2,r2
 4002128:	e0bffb15 	stw	r2,-20(fp)
    for (i = 0; i < bytes_per_line; i+=4) 
 400212c:	e03ff715 	stw	zero,-36(fp)
 4002130:	e0fff717 	ldw	r3,-36(fp)
 4002134:	e0bffb17 	ldw	r2,-20(fp)
 4002138:	1880090e 	bge	r3,r2,4002160 <_Z19vid_draw_horiz_linessiiP16VIP_FRAME_READER+0xf4>
    {
      // Does the right hand side of this assignment determine the size?
      *(int*)(fast_buffer + i) = (unsigned int)color;
 400213c:	e0bff717 	ldw	r2,-36(fp)
 4002140:	e0fff817 	ldw	r3,-32(fp)
 4002144:	1885883a 	add	r2,r3,r2
 4002148:	e0ffff17 	ldw	r3,-4(fp)
 400214c:	10c00015 	stw	r3,0(r2)
  
  if(display->color_depth == 32)
  { 
    addr = (int)(VIPFR_GetDrawFrame(display)) + ((V * (display->width * 4)) + (Hstart * 4));
    bytes_per_line = ((Hend - Hstart) * 4);
    for (i = 0; i < bytes_per_line; i+=4) 
 4002150:	e0bff717 	ldw	r2,-36(fp)
 4002154:	10800104 	addi	r2,r2,4
 4002158:	e0bff715 	stw	r2,-36(fp)
 400215c:	003ff406 	br	4002130 <__alt_mem_epcs_flash_controller_0+0xfb001130>
    {
      // Does the right hand side of this assignment determine the size?
      *(int*)(fast_buffer + i) = (unsigned int)color;
    }
    memcpy( (void*)addr, fast_buffer, bytes_per_line );
 4002160:	e0bffa17 	ldw	r2,-24(fp)
 4002164:	e0fffb17 	ldw	r3,-20(fp)
 4002168:	180d883a 	mov	r6,r3
 400216c:	e17ff817 	ldw	r5,-32(fp)
 4002170:	1009883a 	mov	r4,r2
 4002174:	400e6e80 	call	400e6e8 <memcpy>
  }
  if(display->color_depth == 24)
 4002178:	e0800217 	ldw	r2,8(fp)
 400217c:	10800417 	ldw	r2,16(r2)
 4002180:	10800618 	cmpnei	r2,r2,24
 4002184:	10003a1e 	bne	r2,zero,4002270 <_Z19vid_draw_horiz_linessiiP16VIP_FRAME_READER+0x204>
  { 
    addr = (int)(VIPFR_GetDrawFrame(display)) + ((V * (display->width * 3)) + (Hstart * 3));
 4002188:	e1000217 	ldw	r4,8(fp)
 400218c:	400919c0 	call	400919c <_Z18VIPFR_GetDrawFrameP16VIP_FRAME_READER>
 4002190:	100b883a 	mov	r5,r2
 4002194:	e0800217 	ldw	r2,8(fp)
 4002198:	10c00517 	ldw	r3,20(r2)
 400219c:	1805883a 	mov	r2,r3
 40021a0:	1085883a 	add	r2,r2,r2
 40021a4:	10c7883a 	add	r3,r2,r3
 40021a8:	e0bffe17 	ldw	r2,-8(fp)
 40021ac:	1889383a 	mul	r4,r3,r2
 40021b0:	e0fffc0f 	ldh	r3,-16(fp)
 40021b4:	1805883a 	mov	r2,r3
 40021b8:	1085883a 	add	r2,r2,r2
 40021bc:	10c5883a 	add	r2,r2,r3
 40021c0:	2085883a 	add	r2,r4,r2
 40021c4:	2885883a 	add	r2,r5,r2
 40021c8:	e0bffa15 	stw	r2,-24(fp)
    bytes_per_line = ((Hend - Hstart) * 3);
 40021cc:	e0fffd0f 	ldh	r3,-12(fp)
 40021d0:	e0bffc0f 	ldh	r2,-16(fp)
 40021d4:	1887c83a 	sub	r3,r3,r2
 40021d8:	1805883a 	mov	r2,r3
 40021dc:	1085883a 	add	r2,r2,r2
 40021e0:	10c5883a 	add	r2,r2,r3
 40021e4:	e0bffb15 	stw	r2,-20(fp)
    for (i = 0; i < bytes_per_line; i+=3) 
 40021e8:	e03ff715 	stw	zero,-36(fp)
 40021ec:	e0fff717 	ldw	r3,-36(fp)
 40021f0:	e0bffb17 	ldw	r2,-20(fp)
 40021f4:	1880170e 	bge	r3,r2,4002254 <_Z19vid_draw_horiz_linessiiP16VIP_FRAME_READER+0x1e8>
    {
      *(fast_buffer + i) = (unsigned char)color;
 40021f8:	e0bff717 	ldw	r2,-36(fp)
 40021fc:	e0fff817 	ldw	r3,-32(fp)
 4002200:	1885883a 	add	r2,r3,r2
 4002204:	e0ffff17 	ldw	r3,-4(fp)
 4002208:	10c00005 	stb	r3,0(r2)
      *(fast_buffer + i + 1) = (unsigned char)(color >> 8);
 400220c:	e0bff717 	ldw	r2,-36(fp)
 4002210:	10800044 	addi	r2,r2,1
 4002214:	e0fff817 	ldw	r3,-32(fp)
 4002218:	1885883a 	add	r2,r3,r2
 400221c:	e0ffff17 	ldw	r3,-4(fp)
 4002220:	1807d23a 	srai	r3,r3,8
 4002224:	10c00005 	stb	r3,0(r2)
      *(fast_buffer + i + 2) = (unsigned char)(color >> 16);
 4002228:	e0bff717 	ldw	r2,-36(fp)
 400222c:	10800084 	addi	r2,r2,2
 4002230:	e0fff817 	ldw	r3,-32(fp)
 4002234:	1885883a 	add	r2,r3,r2
 4002238:	e0ffff17 	ldw	r3,-4(fp)
 400223c:	1807d43a 	srai	r3,r3,16
 4002240:	10c00005 	stb	r3,0(r2)
  }
  if(display->color_depth == 24)
  { 
    addr = (int)(VIPFR_GetDrawFrame(display)) + ((V * (display->width * 3)) + (Hstart * 3));
    bytes_per_line = ((Hend - Hstart) * 3);
    for (i = 0; i < bytes_per_line; i+=3) 
 4002244:	e0bff717 	ldw	r2,-36(fp)
 4002248:	108000c4 	addi	r2,r2,3
 400224c:	e0bff715 	stw	r2,-36(fp)
 4002250:	003fe606 	br	40021ec <__alt_mem_epcs_flash_controller_0+0xfb0011ec>
    {
      *(fast_buffer + i) = (unsigned char)color;
      *(fast_buffer + i + 1) = (unsigned char)(color >> 8);
      *(fast_buffer + i + 2) = (unsigned char)(color >> 16);
    }
    memcpy( (void*)addr, fast_buffer, bytes_per_line );
 4002254:	e0bffa17 	ldw	r2,-24(fp)
 4002258:	e0fffb17 	ldw	r3,-20(fp)
 400225c:	180d883a 	mov	r6,r3
 4002260:	e17ff817 	ldw	r5,-32(fp)
 4002264:	1009883a 	mov	r4,r2
 4002268:	400e6e80 	call	400e6e8 <memcpy>
 400226c:	00003106 	br	4002334 <_Z19vid_draw_horiz_linessiiP16VIP_FRAME_READER+0x2c8>
  }
  else if(display->color_depth == 16)
 4002270:	e0800217 	ldw	r2,8(fp)
 4002274:	10800417 	ldw	r2,16(r2)
 4002278:	10800418 	cmpnei	r2,r2,16
 400227c:	10002d1e 	bne	r2,zero,4002334 <_Z19vid_draw_horiz_linessiiP16VIP_FRAME_READER+0x2c8>
  {
    addr = (int)(VIPFR_GetDrawFrame(display)) + ((V * (display->width * 2)) + (Hstart * 2));
 4002280:	e1000217 	ldw	r4,8(fp)
 4002284:	400919c0 	call	400919c <_Z18VIPFR_GetDrawFrameP16VIP_FRAME_READER>
 4002288:	1009883a 	mov	r4,r2
 400228c:	e0800217 	ldw	r2,8(fp)
 4002290:	10800517 	ldw	r2,20(r2)
 4002294:	1085883a 	add	r2,r2,r2
 4002298:	1007883a 	mov	r3,r2
 400229c:	e0bffe17 	ldw	r2,-8(fp)
 40022a0:	1887383a 	mul	r3,r3,r2
 40022a4:	e0bffc0f 	ldh	r2,-16(fp)
 40022a8:	1085883a 	add	r2,r2,r2
 40022ac:	1885883a 	add	r2,r3,r2
 40022b0:	2085883a 	add	r2,r4,r2
 40022b4:	e0bffa15 	stw	r2,-24(fp)
    bytes_per_line = ((Hend - Hstart) * 2);
 40022b8:	e0fffd0f 	ldh	r3,-12(fp)
 40022bc:	e0bffc0f 	ldh	r2,-16(fp)
 40022c0:	1885c83a 	sub	r2,r3,r2
 40022c4:	1085883a 	add	r2,r2,r2
 40022c8:	e0bffb15 	stw	r2,-20(fp)
    for (i = 0; i < bytes_per_line; i+=2) 
 40022cc:	e03ff715 	stw	zero,-36(fp)
 40022d0:	e0fff717 	ldw	r3,-36(fp)
 40022d4:	e0bffb17 	ldw	r2,-20(fp)
 40022d8:	1880100e 	bge	r3,r2,400231c <_Z19vid_draw_horiz_linessiiP16VIP_FRAME_READER+0x2b0>
    {
      *(fast_buffer + i) = (unsigned char)color;
 40022dc:	e0bff717 	ldw	r2,-36(fp)
 40022e0:	e0fff817 	ldw	r3,-32(fp)
 40022e4:	1885883a 	add	r2,r3,r2
 40022e8:	e0ffff17 	ldw	r3,-4(fp)
 40022ec:	10c00005 	stb	r3,0(r2)
      *(fast_buffer + i + 1) = (unsigned char)(color >> 8);
 40022f0:	e0bff717 	ldw	r2,-36(fp)
 40022f4:	10800044 	addi	r2,r2,1
 40022f8:	e0fff817 	ldw	r3,-32(fp)
 40022fc:	1885883a 	add	r2,r3,r2
 4002300:	e0ffff17 	ldw	r3,-4(fp)
 4002304:	1807d23a 	srai	r3,r3,8
 4002308:	10c00005 	stb	r3,0(r2)
  }
  else if(display->color_depth == 16)
  {
    addr = (int)(VIPFR_GetDrawFrame(display)) + ((V * (display->width * 2)) + (Hstart * 2));
    bytes_per_line = ((Hend - Hstart) * 2);
    for (i = 0; i < bytes_per_line; i+=2) 
 400230c:	e0bff717 	ldw	r2,-36(fp)
 4002310:	10800084 	addi	r2,r2,2
 4002314:	e0bff715 	stw	r2,-36(fp)
 4002318:	003fed06 	br	40022d0 <__alt_mem_epcs_flash_controller_0+0xfb0012d0>
    {
      *(fast_buffer + i) = (unsigned char)color;
      *(fast_buffer + i + 1) = (unsigned char)(color >> 8);
    }
    memcpy( (void*)addr, fast_buffer, bytes_per_line );
 400231c:	e0bffa17 	ldw	r2,-24(fp)
 4002320:	e0fffb17 	ldw	r3,-20(fp)
 4002324:	180d883a 	mov	r6,r3
 4002328:	e17ff817 	ldw	r5,-32(fp)
 400232c:	1009883a 	mov	r4,r2
 4002330:	400e6e80 	call	400e6e8 <memcpy>
  }
  free(fast_buffer);
 4002334:	e13ff817 	ldw	r4,-32(fp)
 4002338:	400dec80 	call	400dec8 <free>
}
 400233c:	0001883a 	nop
 4002340:	e037883a 	mov	sp,fp
 4002344:	dfc00117 	ldw	ra,4(sp)
 4002348:	df000017 	ldw	fp,0(sp)
 400234c:	dec00204 	addi	sp,sp,8
 4002350:	f800283a 	ret

04002354 <_Z16vid_merge_colorsiii>:
*  Purpose: Takes 5-bit color values for each red, green, and blue
*           and merges them into one 16-bit color value.
*
******************************************************************/
int vid_merge_colors(int red, int green, int blue)
{
 4002354:	defffc04 	addi	sp,sp,-16
 4002358:	df000315 	stw	fp,12(sp)
 400235c:	df000304 	addi	fp,sp,12
 4002360:	e13ffd15 	stw	r4,-12(fp)
 4002364:	e17ffe15 	stw	r5,-8(fp)
 4002368:	e1bfff15 	stw	r6,-4(fp)
  // Green actually has 6-bits, but we'll make it's LSB 1 to be consistent.
  return ((blue) | (((green << 1) | 0x1) << 5) | (red << 11));
 400236c:	e0bffe17 	ldw	r2,-8(fp)
 4002370:	1085883a 	add	r2,r2,r2
 4002374:	10800054 	ori	r2,r2,1
 4002378:	1006917a 	slli	r3,r2,5
 400237c:	e0bfff17 	ldw	r2,-4(fp)
 4002380:	1886b03a 	or	r3,r3,r2
 4002384:	e0bffd17 	ldw	r2,-12(fp)
 4002388:	100492fa 	slli	r2,r2,11
 400238c:	1884b03a 	or	r2,r3,r2
}
 4002390:	e037883a 	mov	sp,fp
 4002394:	df000017 	ldw	fp,0(sp)
 4002398:	dec00104 	addi	sp,sp,4
 400239c:	f800283a 	ret

040023a0 <_Z22vid_color_convert24_16Pc>:
*           sample and converts it to 16-bits, displayable by the 
*           VGA controller in 16-bit mode
*
******************************************************************/
unsigned short vid_color_convert24_16(char* color24)
{
 40023a0:	defffc04 	addi	sp,sp,-16
 40023a4:	df000315 	stw	fp,12(sp)
 40023a8:	df000304 	addi	fp,sp,12
 40023ac:	e13fff15 	stw	r4,-4(fp)
	unsigned char red, green, blue;
	unsigned short output;
	
	red = *(color24 + 0) & 0xF8;
 40023b0:	e0bfff17 	ldw	r2,-4(fp)
 40023b4:	10800003 	ldbu	r2,0(r2)
 40023b8:	1007883a 	mov	r3,r2
 40023bc:	00bffe04 	movi	r2,-8
 40023c0:	1884703a 	and	r2,r3,r2
 40023c4:	e0bffd05 	stb	r2,-12(fp)
	green = *(color24 + 1) & 0xFC; // green is actualy 6 bits
 40023c8:	e0bfff17 	ldw	r2,-4(fp)
 40023cc:	10800044 	addi	r2,r2,1
 40023d0:	10800003 	ldbu	r2,0(r2)
 40023d4:	1007883a 	mov	r3,r2
 40023d8:	00bfff04 	movi	r2,-4
 40023dc:	1884703a 	and	r2,r3,r2
 40023e0:	e0bffd45 	stb	r2,-11(fp)
	blue = *(color24 + 2) & 0xF8;
 40023e4:	e0bfff17 	ldw	r2,-4(fp)
 40023e8:	10800084 	addi	r2,r2,2
 40023ec:	10800003 	ldbu	r2,0(r2)
 40023f0:	1007883a 	mov	r3,r2
 40023f4:	00bffe04 	movi	r2,-8
 40023f8:	1884703a 	and	r2,r3,r2
 40023fc:	e0bffd85 	stb	r2,-10(fp)

	output = ((blue >> 3) | (green << 3) | (red << 8));  
 4002400:	e0bffd83 	ldbu	r2,-10(fp)
 4002404:	1005d0fa 	srai	r2,r2,3
 4002408:	1007883a 	mov	r3,r2
 400240c:	e0bffd43 	ldbu	r2,-11(fp)
 4002410:	100490fa 	slli	r2,r2,3
 4002414:	1884b03a 	or	r2,r3,r2
 4002418:	1007883a 	mov	r3,r2
 400241c:	e0bffd03 	ldbu	r2,-12(fp)
 4002420:	1004923a 	slli	r2,r2,8
 4002424:	1884b03a 	or	r2,r3,r2
 4002428:	e0bffe0d 	sth	r2,-8(fp)
	return output;
 400242c:	e0bffe0b 	ldhu	r2,-8(fp)
}
 4002430:	e037883a 	mov	sp,fp
 4002434:	df000017 	ldw	fp,0(sp)
 4002438:	dec00104 	addi	sp,sp,4
 400243c:	f800283a 	ret

04002440 <_Z22vid_color_convert16_24tPc>:
*           sample and converts it to 16-bits, displayable by the 
*           VGA controller in 16-bit mode
*
******************************************************************/
int vid_color_convert16_24(unsigned short color16, char* color24)
{
 4002440:	defffd04 	addi	sp,sp,-12
 4002444:	df000215 	stw	fp,8(sp)
 4002448:	df000204 	addi	fp,sp,8
 400244c:	2005883a 	mov	r2,r4
 4002450:	e17fff15 	stw	r5,-4(fp)
 4002454:	e0bffe0d 	sth	r2,-8(fp)
	*(color24 + 0) = color16 >> 11;
 4002458:	e0bffe0b 	ldhu	r2,-8(fp)
 400245c:	1005d2fa 	srai	r2,r2,11
 4002460:	1007883a 	mov	r3,r2
 4002464:	e0bfff17 	ldw	r2,-4(fp)
 4002468:	10c00005 	stb	r3,0(r2)
	*(color24 + 1) = ((color16 & 0x3E) >> 5);
 400246c:	e0bfff17 	ldw	r2,-4(fp)
 4002470:	10800044 	addi	r2,r2,1
 4002474:	e0fffe0b 	ldhu	r3,-8(fp)
 4002478:	18c00f8c 	andi	r3,r3,62
 400247c:	1807d17a 	srai	r3,r3,5
 4002480:	10c00005 	stb	r3,0(r2)
	*(color24 + 2) = (color16 & 0x1F);
 4002484:	e0bfff17 	ldw	r2,-4(fp)
 4002488:	10800084 	addi	r2,r2,2
 400248c:	e0fffe0b 	ldhu	r3,-8(fp)
 4002490:	18c007cc 	andi	r3,r3,31
 4002494:	10c00005 	stb	r3,0(r2)
	
	return (0);
 4002498:	0005883a 	mov	r2,zero
}
 400249c:	e037883a 	mov	sp,fp
 40024a0:	df000017 	ldw	fp,0(sp)
 40024a4:	dec00104 	addi	sp,sp,4
 40024a8:	f800283a 	ret

040024ac <_Z29vid_copy_line_to_frame_bufferiiPciiP16VIP_FRAME_READER>:
*           the specified coordinates.  Converts color depth if
*           necessary.
*
******************************************************************/
int vid_copy_line_to_frame_buffer( int x, int y, char* buffer, int num_pixels, int source_color_depth, alt_video_display* display )
{
 40024ac:	defff504 	addi	sp,sp,-44
 40024b0:	dfc00a15 	stw	ra,40(sp)
 40024b4:	df000915 	stw	fp,36(sp)
 40024b8:	df000904 	addi	fp,sp,36
 40024bc:	e13ffc15 	stw	r4,-16(fp)
 40024c0:	e17ffd15 	stw	r5,-12(fp)
 40024c4:	e1bffe15 	stw	r6,-8(fp)
 40024c8:	e1ffff15 	stw	r7,-4(fp)
  unsigned short* temp_line;
  int index_24 = 0;
 40024cc:	e03ff715 	stw	zero,-36(fp)
  int index_16 = 0;
 40024d0:	e03ff815 	stw	zero,-32(fp)
  unsigned int dest_addr;
  unsigned int bytes_in_line;
  
  dest_addr = (int)(VIPFR_GetDrawFrame(display)) + 
 40024d4:	e1000317 	ldw	r4,12(fp)
 40024d8:	400919c0 	call	400919c <_Z18VIPFR_GetDrawFrameP16VIP_FRAME_READER>
 40024dc:	100b883a 	mov	r5,r2
    ((y * (display->width * (display->bytes_per_pixel))) + 
 40024e0:	e0800317 	ldw	r2,12(fp)
 40024e4:	10c00517 	ldw	r3,20(r2)
 40024e8:	e0800317 	ldw	r2,12(fp)
 40024ec:	10800717 	ldw	r2,28(r2)
 40024f0:	1887383a 	mul	r3,r3,r2
 40024f4:	e0bffd17 	ldw	r2,-12(fp)
 40024f8:	1887383a 	mul	r3,r3,r2
    (x * (display->bytes_per_pixel)));
 40024fc:	e0800317 	ldw	r2,12(fp)
 4002500:	11000717 	ldw	r4,28(r2)
 4002504:	e0bffc17 	ldw	r2,-16(fp)
 4002508:	2085383a 	mul	r2,r4,r2
  int index_16 = 0;
  unsigned int dest_addr;
  unsigned int bytes_in_line;
  
  dest_addr = (int)(VIPFR_GetDrawFrame(display)) + 
    ((y * (display->width * (display->bytes_per_pixel))) + 
 400250c:	1885883a 	add	r2,r3,r2
  int index_24 = 0;
  int index_16 = 0;
  unsigned int dest_addr;
  unsigned int bytes_in_line;
  
  dest_addr = (int)(VIPFR_GetDrawFrame(display)) + 
 4002510:	2885883a 	add	r2,r5,r2
    ((y * (display->width * (display->bytes_per_pixel))) + 
    (x * (display->bytes_per_pixel)));
 4002514:	e0bff915 	stw	r2,-28(fp)
  
  bytes_in_line = num_pixels * display->bytes_per_pixel;
 4002518:	e0800317 	ldw	r2,12(fp)
 400251c:	10c00717 	ldw	r3,28(r2)
 4002520:	e0bfff17 	ldw	r2,-4(fp)
 4002524:	1885383a 	mul	r2,r3,r2
 4002528:	e0bffa15 	stw	r2,-24(fp)
  
  if(source_color_depth == 24)
 400252c:	e0800217 	ldw	r2,8(fp)
 4002530:	10800618 	cmpnei	r2,r2,24
 4002534:	10004a1e 	bne	r2,zero,4002660 <_Z29vid_copy_line_to_frame_bufferiiPciiP16VIP_FRAME_READER+0x1b4>
  {
    if(display->color_depth == 16)
 4002538:	e0800317 	ldw	r2,12(fp)
 400253c:	10800417 	ldw	r2,16(r2)
 4002540:	10800418 	cmpnei	r2,r2,16
 4002544:	10003c1e 	bne	r2,zero,4002638 <_Z29vid_copy_line_to_frame_bufferiiPciiP16VIP_FRAME_READER+0x18c>
    {
      temp_line = (unsigned short *)malloc(bytes_in_line);
 4002548:	e13ffa17 	ldw	r4,-24(fp)
 400254c:	400deb40 	call	400deb4 <malloc>
 4002550:	e0bffb15 	stw	r2,-20(fp)
      while(index_24 < bytes_in_line)
 4002554:	e0fff717 	ldw	r3,-36(fp)
 4002558:	e0bffa17 	ldw	r2,-24(fp)
 400255c:	18802e2e 	bgeu	r3,r2,4002618 <_Z29vid_copy_line_to_frame_bufferiiPciiP16VIP_FRAME_READER+0x16c>
      {
        *(temp_line + index_16) = vid_color_convert24_16_m((char*)(buffer + index_24));
 4002560:	e0bff817 	ldw	r2,-32(fp)
 4002564:	1085883a 	add	r2,r2,r2
 4002568:	1007883a 	mov	r3,r2
 400256c:	e0bffb17 	ldw	r2,-20(fp)
 4002570:	10c5883a 	add	r2,r2,r3
 4002574:	e0fff717 	ldw	r3,-36(fp)
 4002578:	18c00084 	addi	r3,r3,2
 400257c:	e13ffe17 	ldw	r4,-8(fp)
 4002580:	20c7883a 	add	r3,r4,r3
 4002584:	18c00003 	ldbu	r3,0(r3)
 4002588:	18c03fcc 	andi	r3,r3,255
 400258c:	18c0201c 	xori	r3,r3,128
 4002590:	18ffe004 	addi	r3,r3,-128
 4002594:	18c03e0c 	andi	r3,r3,248
 4002598:	1807d0fa 	srai	r3,r3,3
 400259c:	180b883a 	mov	r5,r3
 40025a0:	e0fff717 	ldw	r3,-36(fp)
 40025a4:	18c00044 	addi	r3,r3,1
 40025a8:	e13ffe17 	ldw	r4,-8(fp)
 40025ac:	20c7883a 	add	r3,r4,r3
 40025b0:	18c00003 	ldbu	r3,0(r3)
 40025b4:	18c03fcc 	andi	r3,r3,255
 40025b8:	18c0201c 	xori	r3,r3,128
 40025bc:	18ffe004 	addi	r3,r3,-128
 40025c0:	18c03f0c 	andi	r3,r3,252
 40025c4:	180690fa 	slli	r3,r3,3
 40025c8:	28c6b03a 	or	r3,r5,r3
 40025cc:	180b883a 	mov	r5,r3
 40025d0:	e0fff717 	ldw	r3,-36(fp)
 40025d4:	e13ffe17 	ldw	r4,-8(fp)
 40025d8:	20c7883a 	add	r3,r4,r3
 40025dc:	18c00003 	ldbu	r3,0(r3)
 40025e0:	18c03fcc 	andi	r3,r3,255
 40025e4:	18c0201c 	xori	r3,r3,128
 40025e8:	18ffe004 	addi	r3,r3,-128
 40025ec:	18c03e0c 	andi	r3,r3,248
 40025f0:	1806923a 	slli	r3,r3,8
 40025f4:	28c6b03a 	or	r3,r5,r3
 40025f8:	10c0000d 	sth	r3,0(r2)
        index_16++;
 40025fc:	e0bff817 	ldw	r2,-32(fp)
 4002600:	10800044 	addi	r2,r2,1
 4002604:	e0bff815 	stw	r2,-32(fp)
        index_24+=3;
 4002608:	e0bff717 	ldw	r2,-36(fp)
 400260c:	108000c4 	addi	r2,r2,3
 4002610:	e0bff715 	stw	r2,-36(fp)
  if(source_color_depth == 24)
  {
    if(display->color_depth == 16)
    {
      temp_line = (unsigned short *)malloc(bytes_in_line);
      while(index_24 < bytes_in_line)
 4002614:	003fcf06 	br	4002554 <__alt_mem_epcs_flash_controller_0+0xfb001554>
      {
        *(temp_line + index_16) = vid_color_convert24_16_m((char*)(buffer + index_24));
        index_16++;
        index_24+=3;
      }
      memcpy( (void*)dest_addr, (void*)temp_line, bytes_in_line );
 4002618:	e0bff917 	ldw	r2,-28(fp)
 400261c:	e1bffa17 	ldw	r6,-24(fp)
 4002620:	e17ffb17 	ldw	r5,-20(fp)
 4002624:	1009883a 	mov	r4,r2
 4002628:	400e6e80 	call	400e6e8 <memcpy>
      free(temp_line);
 400262c:	e13ffb17 	ldw	r4,-20(fp)
 4002630:	400dec80 	call	400dec8 <free>
 4002634:	00003f06 	br	4002734 <_Z29vid_copy_line_to_frame_bufferiiPciiP16VIP_FRAME_READER+0x288>
    }
    else if(display->color_depth == 24)
 4002638:	e0800317 	ldw	r2,12(fp)
 400263c:	10800417 	ldw	r2,16(r2)
 4002640:	10800618 	cmpnei	r2,r2,24
 4002644:	10003b1e 	bne	r2,zero,4002734 <_Z29vid_copy_line_to_frame_bufferiiPciiP16VIP_FRAME_READER+0x288>
    {
      memcpy( (void*)dest_addr, (void*)buffer, bytes_in_line );
 4002648:	e0bff917 	ldw	r2,-28(fp)
 400264c:	e1bffa17 	ldw	r6,-24(fp)
 4002650:	e17ffe17 	ldw	r5,-8(fp)
 4002654:	1009883a 	mov	r4,r2
 4002658:	400e6e80 	call	400e6e8 <memcpy>
 400265c:	00003506 	br	4002734 <_Z29vid_copy_line_to_frame_bufferiiPciiP16VIP_FRAME_READER+0x288>
    }
  }
  else if(source_color_depth == 16)
 4002660:	e0800217 	ldw	r2,8(fp)
 4002664:	10800418 	cmpnei	r2,r2,16
 4002668:	1000321e 	bne	r2,zero,4002734 <_Z29vid_copy_line_to_frame_bufferiiPciiP16VIP_FRAME_READER+0x288>
  {
    if(display->color_depth == 24)
 400266c:	e0800317 	ldw	r2,12(fp)
 4002670:	10800417 	ldw	r2,16(r2)
 4002674:	10800618 	cmpnei	r2,r2,24
 4002678:	1000251e 	bne	r2,zero,4002710 <_Z29vid_copy_line_to_frame_bufferiiPciiP16VIP_FRAME_READER+0x264>
    {
      temp_line = (unsigned short *)malloc(bytes_in_line);
 400267c:	e13ffa17 	ldw	r4,-24(fp)
 4002680:	400deb40 	call	400deb4 <malloc>
 4002684:	e0bffb15 	stw	r2,-20(fp)
      while(index_16 < num_pixels )
 4002688:	e0fff817 	ldw	r3,-32(fp)
 400268c:	e0bfff17 	ldw	r2,-4(fp)
 4002690:	1880170e 	bge	r3,r2,40026f0 <_Z29vid_copy_line_to_frame_bufferiiPciiP16VIP_FRAME_READER+0x244>
      {
        vid_color_convert16_24((short)*(buffer + index_16), (char*)(temp_line + index_24));
 4002694:	e0bff817 	ldw	r2,-32(fp)
 4002698:	e0fffe17 	ldw	r3,-8(fp)
 400269c:	1885883a 	add	r2,r3,r2
 40026a0:	10800003 	ldbu	r2,0(r2)
 40026a4:	10803fcc 	andi	r2,r2,255
 40026a8:	1080201c 	xori	r2,r2,128
 40026ac:	10bfe004 	addi	r2,r2,-128
 40026b0:	10ffffcc 	andi	r3,r2,65535
 40026b4:	e0bff717 	ldw	r2,-36(fp)
 40026b8:	1085883a 	add	r2,r2,r2
 40026bc:	1009883a 	mov	r4,r2
 40026c0:	e0bffb17 	ldw	r2,-20(fp)
 40026c4:	1105883a 	add	r2,r2,r4
 40026c8:	100b883a 	mov	r5,r2
 40026cc:	1809883a 	mov	r4,r3
 40026d0:	40024400 	call	4002440 <_Z22vid_color_convert16_24tPc>
        index_16++;
 40026d4:	e0bff817 	ldw	r2,-32(fp)
 40026d8:	10800044 	addi	r2,r2,1
 40026dc:	e0bff815 	stw	r2,-32(fp)
        index_24+=3;
 40026e0:	e0bff717 	ldw	r2,-36(fp)
 40026e4:	108000c4 	addi	r2,r2,3
 40026e8:	e0bff715 	stw	r2,-36(fp)
  else if(source_color_depth == 16)
  {
    if(display->color_depth == 24)
    {
      temp_line = (unsigned short *)malloc(bytes_in_line);
      while(index_16 < num_pixels )
 40026ec:	003fe606 	br	4002688 <__alt_mem_epcs_flash_controller_0+0xfb001688>
      {
        vid_color_convert16_24((short)*(buffer + index_16), (char*)(temp_line + index_24));
        index_16++;
        index_24+=3;
      }
      memcpy( (void*)dest_addr, (void*)temp_line, bytes_in_line );
 40026f0:	e0bff917 	ldw	r2,-28(fp)
 40026f4:	e1bffa17 	ldw	r6,-24(fp)
 40026f8:	e17ffb17 	ldw	r5,-20(fp)
 40026fc:	1009883a 	mov	r4,r2
 4002700:	400e6e80 	call	400e6e8 <memcpy>
      free(temp_line);
 4002704:	e13ffb17 	ldw	r4,-20(fp)
 4002708:	400dec80 	call	400dec8 <free>
 400270c:	00000906 	br	4002734 <_Z29vid_copy_line_to_frame_bufferiiPciiP16VIP_FRAME_READER+0x288>
      
    }
    else if(display->color_depth == 16)
 4002710:	e0800317 	ldw	r2,12(fp)
 4002714:	10800417 	ldw	r2,16(r2)
 4002718:	10800418 	cmpnei	r2,r2,16
 400271c:	1000051e 	bne	r2,zero,4002734 <_Z29vid_copy_line_to_frame_bufferiiPciiP16VIP_FRAME_READER+0x288>
    {
      memcpy( (void*)dest_addr, (void*)buffer, bytes_in_line );
 4002720:	e0bff917 	ldw	r2,-28(fp)
 4002724:	e1bffa17 	ldw	r6,-24(fp)
 4002728:	e17ffe17 	ldw	r5,-8(fp)
 400272c:	1009883a 	mov	r4,r2
 4002730:	400e6e80 	call	400e6e8 <memcpy>
    }
  }
  return(0);
 4002734:	0005883a 	mov	r2,zero
}
 4002738:	e037883a 	mov	sp,fp
 400273c:	dfc00117 	ldw	ra,4(sp)
 4002740:	df000017 	ldw	fp,0(sp)
 4002744:	dec00204 	addi	sp,sp,8
 4002748:	f800283a 	ret

0400274c <_Z20vid_draw_sloped_linetttttiP16VIP_FRAME_READER>:
                           unsigned short horiz_end, 
                           unsigned short vert_end, 
                           unsigned short width, 
                           int color, 
                           alt_video_display* display)
{
 400274c:	deffef04 	addi	sp,sp,-68
 4002750:	dfc01015 	stw	ra,64(sp)
 4002754:	df000f15 	stw	fp,60(sp)
 4002758:	df000f04 	addi	fp,sp,60
 400275c:	2011883a 	mov	r8,r4
 4002760:	3009883a 	mov	r4,r6
 4002764:	3807883a 	mov	r3,r7
 4002768:	e0800217 	ldw	r2,8(fp)
 400276c:	e23ffb0d 	sth	r8,-20(fp)
 4002770:	e17ffc0d 	sth	r5,-16(fp)
 4002774:	e13ffd0d 	sth	r4,-12(fp)
 4002778:	e0fffe0d 	sth	r3,-8(fp)
 400277c:	e0bfff0d 	sth	r2,-4(fp)
  // Find the vertical and horizontal distance between the two points
  int horiz_delta = abs(horiz_end-horiz_start);
 4002780:	e0fffd0b 	ldhu	r3,-12(fp)
 4002784:	e0bffb0b 	ldhu	r2,-20(fp)
 4002788:	1885c83a 	sub	r2,r3,r2
 400278c:	1000010e 	bge	r2,zero,4002794 <_Z20vid_draw_sloped_linetttttiP16VIP_FRAME_READER+0x48>
 4002790:	0085c83a 	sub	r2,zero,r2
 4002794:	e0bff115 	stw	r2,-60(fp)
  int vert_delta = abs(vert_end-vert_start);
 4002798:	e0fffe0b 	ldhu	r3,-8(fp)
 400279c:	e0bffc0b 	ldhu	r2,-16(fp)
 40027a0:	1885c83a 	sub	r2,r3,r2
 40027a4:	1000010e 	bge	r2,zero,40027ac <_Z20vid_draw_sloped_linetttttiP16VIP_FRAME_READER+0x60>
 40027a8:	0085c83a 	sub	r2,zero,r2
 40027ac:	e0bff215 	stw	r2,-56(fp)

  // Find out what direction we are going
  int horiz_incr, vert_incr;
  if (horiz_start > horiz_end) { horiz_incr=-1; } else { horiz_incr=1; }
 40027b0:	e0bffb0b 	ldhu	r2,-20(fp)
 40027b4:	e0fffd0b 	ldhu	r3,-12(fp)
 40027b8:	1880032e 	bgeu	r3,r2,40027c8 <_Z20vid_draw_sloped_linetttttiP16VIP_FRAME_READER+0x7c>
 40027bc:	00bfffc4 	movi	r2,-1
 40027c0:	e0bff315 	stw	r2,-52(fp)
 40027c4:	00000206 	br	40027d0 <_Z20vid_draw_sloped_linetttttiP16VIP_FRAME_READER+0x84>
 40027c8:	00800044 	movi	r2,1
 40027cc:	e0bff315 	stw	r2,-52(fp)
  if (vert_start > vert_end) { vert_incr=-1; } else { vert_incr=1; }
 40027d0:	e0bffc0b 	ldhu	r2,-16(fp)
 40027d4:	e0fffe0b 	ldhu	r3,-8(fp)
 40027d8:	1880032e 	bgeu	r3,r2,40027e8 <_Z20vid_draw_sloped_linetttttiP16VIP_FRAME_READER+0x9c>
 40027dc:	00bfffc4 	movi	r2,-1
 40027e0:	e0bff415 	stw	r2,-48(fp)
 40027e4:	00000206 	br	40027f0 <_Z20vid_draw_sloped_linetttttiP16VIP_FRAME_READER+0xa4>
 40027e8:	00800044 	movi	r2,1
 40027ec:	e0bff415 	stw	r2,-48(fp)

  // Find out which axis is always incremented when drawing the line
  // If it's the horizontal axis
  if (horiz_delta >= vert_delta) {
 40027f0:	e0fff117 	ldw	r3,-60(fp)
 40027f4:	e0bff217 	ldw	r2,-56(fp)
 40027f8:	18803516 	blt	r3,r2,40028d0 <_Z20vid_draw_sloped_linetttttiP16VIP_FRAME_READER+0x184>
    int dPr   = vert_delta<<1;
 40027fc:	e0bff217 	ldw	r2,-56(fp)
 4002800:	1085883a 	add	r2,r2,r2
 4002804:	e0bff715 	stw	r2,-36(fp)
    int dPru  = dPr - (horiz_delta<<1);
 4002808:	e0bff117 	ldw	r2,-60(fp)
 400280c:	1085883a 	add	r2,r2,r2
 4002810:	1007883a 	mov	r3,r2
 4002814:	e0bff717 	ldw	r2,-36(fp)
 4002818:	10c5c83a 	sub	r2,r2,r3
 400281c:	e0bff815 	stw	r2,-32(fp)
    int P     = dPr - horiz_delta;
 4002820:	e0fff717 	ldw	r3,-36(fp)
 4002824:	e0bff117 	ldw	r2,-60(fp)
 4002828:	1885c83a 	sub	r2,r3,r2
 400282c:	e0bff515 	stw	r2,-44(fp)

    // Process the line, one horizontal point at at time
    for (; horiz_delta >= 0; horiz_delta--) {
 4002830:	e0bff117 	ldw	r2,-60(fp)
 4002834:	10005b16 	blt	r2,zero,40029a4 <_Z20vid_draw_sloped_linetttttiP16VIP_FRAME_READER+0x258>
      // plot the pixel
      vid_set_pixel(horiz_start, vert_start, color, display);
 4002838:	e0bffb0b 	ldhu	r2,-20(fp)
 400283c:	e0fffc0b 	ldhu	r3,-16(fp)
 4002840:	e1000317 	ldw	r4,12(fp)
 4002844:	e1c00417 	ldw	r7,16(fp)
 4002848:	200d883a 	mov	r6,r4
 400284c:	180b883a 	mov	r5,r3
 4002850:	1009883a 	mov	r4,r2
 4002854:	4001c300 	call	4001c30 <_Z13vid_set_pixeliijP16VIP_FRAME_READER>
      // If we're moving both up and right
      if (P > 0) {
 4002858:	e0bff517 	ldw	r2,-44(fp)
 400285c:	00800f0e 	bge	zero,r2,400289c <_Z20vid_draw_sloped_linetttttiP16VIP_FRAME_READER+0x150>
        horiz_start+=horiz_incr;
 4002860:	e0bff317 	ldw	r2,-52(fp)
 4002864:	1007883a 	mov	r3,r2
 4002868:	e0bffb0b 	ldhu	r2,-20(fp)
 400286c:	1885883a 	add	r2,r3,r2
 4002870:	e0bffb0d 	sth	r2,-20(fp)
        vert_start+=vert_incr;
 4002874:	e0bff417 	ldw	r2,-48(fp)
 4002878:	1007883a 	mov	r3,r2
 400287c:	e0bffc0b 	ldhu	r2,-16(fp)
 4002880:	1885883a 	add	r2,r3,r2
 4002884:	e0bffc0d 	sth	r2,-16(fp)
        P+=dPru;
 4002888:	e0fff517 	ldw	r3,-44(fp)
 400288c:	e0bff817 	ldw	r2,-32(fp)
 4002890:	1885883a 	add	r2,r3,r2
 4002894:	e0bff515 	stw	r2,-44(fp)
 4002898:	00000906 	br	40028c0 <_Z20vid_draw_sloped_linetttttiP16VIP_FRAME_READER+0x174>
      } else {
        horiz_start+=horiz_incr;
 400289c:	e0bff317 	ldw	r2,-52(fp)
 40028a0:	1007883a 	mov	r3,r2
 40028a4:	e0bffb0b 	ldhu	r2,-20(fp)
 40028a8:	1885883a 	add	r2,r3,r2
 40028ac:	e0bffb0d 	sth	r2,-20(fp)
        P+=dPr;
 40028b0:	e0fff517 	ldw	r3,-44(fp)
 40028b4:	e0bff717 	ldw	r2,-36(fp)
 40028b8:	1885883a 	add	r2,r3,r2
 40028bc:	e0bff515 	stw	r2,-44(fp)
    int dPr   = vert_delta<<1;
    int dPru  = dPr - (horiz_delta<<1);
    int P     = dPr - horiz_delta;

    // Process the line, one horizontal point at at time
    for (; horiz_delta >= 0; horiz_delta--) {
 40028c0:	e0bff117 	ldw	r2,-60(fp)
 40028c4:	10bfffc4 	addi	r2,r2,-1
 40028c8:	e0bff115 	stw	r2,-60(fp)
 40028cc:	003fd806 	br	4002830 <__alt_mem_epcs_flash_controller_0+0xfb001830>
        P+=dPr;
      }
    }
  // If it's the vertical axis
  } else {
    int dPr   = horiz_delta<<1;
 40028d0:	e0bff117 	ldw	r2,-60(fp)
 40028d4:	1085883a 	add	r2,r2,r2
 40028d8:	e0bff915 	stw	r2,-28(fp)
    int dPru  = dPr - (vert_delta<<1);
 40028dc:	e0bff217 	ldw	r2,-56(fp)
 40028e0:	1085883a 	add	r2,r2,r2
 40028e4:	1007883a 	mov	r3,r2
 40028e8:	e0bff917 	ldw	r2,-28(fp)
 40028ec:	10c5c83a 	sub	r2,r2,r3
 40028f0:	e0bffa15 	stw	r2,-24(fp)
    int P     = dPr - vert_delta;
 40028f4:	e0fff917 	ldw	r3,-28(fp)
 40028f8:	e0bff217 	ldw	r2,-56(fp)
 40028fc:	1885c83a 	sub	r2,r3,r2
 4002900:	e0bff615 	stw	r2,-40(fp)

    // Process the line, one vertical point at at time
    for (; vert_delta>=0; vert_delta--) {
 4002904:	e0bff217 	ldw	r2,-56(fp)
 4002908:	10002616 	blt	r2,zero,40029a4 <_Z20vid_draw_sloped_linetttttiP16VIP_FRAME_READER+0x258>
      // plot the pixel
      vid_set_pixel(horiz_start, vert_start, color, display);
 400290c:	e0bffb0b 	ldhu	r2,-20(fp)
 4002910:	e0fffc0b 	ldhu	r3,-16(fp)
 4002914:	e1000317 	ldw	r4,12(fp)
 4002918:	e1c00417 	ldw	r7,16(fp)
 400291c:	200d883a 	mov	r6,r4
 4002920:	180b883a 	mov	r5,r3
 4002924:	1009883a 	mov	r4,r2
 4002928:	4001c300 	call	4001c30 <_Z13vid_set_pixeliijP16VIP_FRAME_READER>
      // If we're moving both up and right
      if (P > 0) {
 400292c:	e0bff617 	ldw	r2,-40(fp)
 4002930:	00800f0e 	bge	zero,r2,4002970 <_Z20vid_draw_sloped_linetttttiP16VIP_FRAME_READER+0x224>
        horiz_start+=horiz_incr;
 4002934:	e0bff317 	ldw	r2,-52(fp)
 4002938:	1007883a 	mov	r3,r2
 400293c:	e0bffb0b 	ldhu	r2,-20(fp)
 4002940:	1885883a 	add	r2,r3,r2
 4002944:	e0bffb0d 	sth	r2,-20(fp)
        vert_start+=vert_incr;
 4002948:	e0bff417 	ldw	r2,-48(fp)
 400294c:	1007883a 	mov	r3,r2
 4002950:	e0bffc0b 	ldhu	r2,-16(fp)
 4002954:	1885883a 	add	r2,r3,r2
 4002958:	e0bffc0d 	sth	r2,-16(fp)
        P+=dPru;
 400295c:	e0fff617 	ldw	r3,-40(fp)
 4002960:	e0bffa17 	ldw	r2,-24(fp)
 4002964:	1885883a 	add	r2,r3,r2
 4002968:	e0bff615 	stw	r2,-40(fp)
 400296c:	00000906 	br	4002994 <_Z20vid_draw_sloped_linetttttiP16VIP_FRAME_READER+0x248>
      } else {
        vert_start+=vert_incr;
 4002970:	e0bff417 	ldw	r2,-48(fp)
 4002974:	1007883a 	mov	r3,r2
 4002978:	e0bffc0b 	ldhu	r2,-16(fp)
 400297c:	1885883a 	add	r2,r3,r2
 4002980:	e0bffc0d 	sth	r2,-16(fp)
        P+=dPr;
 4002984:	e0fff617 	ldw	r3,-40(fp)
 4002988:	e0bff917 	ldw	r2,-28(fp)
 400298c:	1885883a 	add	r2,r3,r2
 4002990:	e0bff615 	stw	r2,-40(fp)
    int dPr   = horiz_delta<<1;
    int dPru  = dPr - (vert_delta<<1);
    int P     = dPr - vert_delta;

    // Process the line, one vertical point at at time
    for (; vert_delta>=0; vert_delta--) {
 4002994:	e0bff217 	ldw	r2,-56(fp)
 4002998:	10bfffc4 	addi	r2,r2,-1
 400299c:	e0bff215 	stw	r2,-56(fp)
 40029a0:	003fd806 	br	4002904 <__alt_mem_epcs_flash_controller_0+0xfb001904>
        vert_start+=vert_incr;
        P+=dPr;
      }
    }
  }
}
 40029a4:	0001883a 	nop
 40029a8:	e037883a 	mov	sp,fp
 40029ac:	dfc00117 	ldw	ra,4(sp)
 40029b0:	df000017 	ldw	fp,0(sp)
 40029b4:	dec00204 	addi	sp,sp,8
 40029b8:	f800283a 	ret

040029bc <_Z15vid_draw_circleiiiicP16VIP_FRAME_READER>:
*  tells the function whether or not to fill in the box.  1 = fill,
*  0 = do not fill.
*
******************************************************************/
int vid_draw_circle(int Hcenter, int Vcenter, int radius, int color, char fill, alt_video_display* display)
{
 40029bc:	defff104 	addi	sp,sp,-60
 40029c0:	dfc00e15 	stw	ra,56(sp)
 40029c4:	df000d15 	stw	fp,52(sp)
 40029c8:	df000d04 	addi	fp,sp,52
 40029cc:	e13ffb15 	stw	r4,-20(fp)
 40029d0:	e17ffc15 	stw	r5,-16(fp)
 40029d4:	e1bffd15 	stw	r6,-12(fp)
 40029d8:	e1fffe15 	stw	r7,-8(fp)
 40029dc:	e0800217 	ldw	r2,8(fp)
 40029e0:	e0bfff05 	stb	r2,-4(fp)
  int x = 0;
 40029e4:	e03ff815 	stw	zero,-32(fp)
  int y = radius;
 40029e8:	e0bffd17 	ldw	r2,-12(fp)
 40029ec:	e0bff915 	stw	r2,-28(fp)
  int p = (5 - radius*4)/4;
 40029f0:	e0bffd17 	ldw	r2,-12(fp)
 40029f4:	1085883a 	add	r2,r2,r2
 40029f8:	1085883a 	add	r2,r2,r2
 40029fc:	1007883a 	mov	r3,r2
 4002a00:	00800144 	movi	r2,5
 4002a04:	10c5c83a 	sub	r2,r2,r3
 4002a08:	1000010e 	bge	r2,zero,4002a10 <_Z15vid_draw_circleiiiicP16VIP_FRAME_READER+0x54>
 4002a0c:	108000c4 	addi	r2,r2,3
 4002a10:	1005d0ba 	srai	r2,r2,2
 4002a14:	e0bffa15 	stw	r2,-24(fp)

  // Start the circle with the top, bottom, left, and right pixels.
  vid_round_corner_points(Hcenter, Vcenter, x, y, 0, 0, color, fill, display);
 4002a18:	e0bfff07 	ldb	r2,-4(fp)
 4002a1c:	e0c00317 	ldw	r3,12(fp)
 4002a20:	d8c00415 	stw	r3,16(sp)
 4002a24:	d8800315 	stw	r2,12(sp)
 4002a28:	e0bffe17 	ldw	r2,-8(fp)
 4002a2c:	d8800215 	stw	r2,8(sp)
 4002a30:	d8000115 	stw	zero,4(sp)
 4002a34:	d8000015 	stw	zero,0(sp)
 4002a38:	e1fff917 	ldw	r7,-28(fp)
 4002a3c:	e1bff817 	ldw	r6,-32(fp)
 4002a40:	e17ffc17 	ldw	r5,-16(fp)
 4002a44:	e13ffb17 	ldw	r4,-20(fp)
 4002a48:	4002ec00 	call	4002ec0 <_Z23vid_round_corner_pointsiiiiiiicP16VIP_FRAME_READER>

  // Now start moving out from those points until the lines meet
  while (x < y) {
 4002a4c:	e0fff817 	ldw	r3,-32(fp)
 4002a50:	e0bff917 	ldw	r2,-28(fp)
 4002a54:	1880250e 	bge	r3,r2,4002aec <_Z15vid_draw_circleiiiicP16VIP_FRAME_READER+0x130>
    x++;
 4002a58:	e0bff817 	ldw	r2,-32(fp)
 4002a5c:	10800044 	addi	r2,r2,1
 4002a60:	e0bff815 	stw	r2,-32(fp)
    if (p < 0) {
 4002a64:	e0bffa17 	ldw	r2,-24(fp)
 4002a68:	1000070e 	bge	r2,zero,4002a88 <_Z15vid_draw_circleiiiicP16VIP_FRAME_READER+0xcc>
      p += 2*x+1;
 4002a6c:	e0bff817 	ldw	r2,-32(fp)
 4002a70:	1085883a 	add	r2,r2,r2
 4002a74:	10800044 	addi	r2,r2,1
 4002a78:	e0fffa17 	ldw	r3,-24(fp)
 4002a7c:	1885883a 	add	r2,r3,r2
 4002a80:	e0bffa15 	stw	r2,-24(fp)
 4002a84:	00000b06 	br	4002ab4 <_Z15vid_draw_circleiiiicP16VIP_FRAME_READER+0xf8>
    } else {
      y--;
 4002a88:	e0bff917 	ldw	r2,-28(fp)
 4002a8c:	10bfffc4 	addi	r2,r2,-1
 4002a90:	e0bff915 	stw	r2,-28(fp)
      p += 2*(x-y)+1;
 4002a94:	e0fff817 	ldw	r3,-32(fp)
 4002a98:	e0bff917 	ldw	r2,-28(fp)
 4002a9c:	1885c83a 	sub	r2,r3,r2
 4002aa0:	1085883a 	add	r2,r2,r2
 4002aa4:	10800044 	addi	r2,r2,1
 4002aa8:	e0fffa17 	ldw	r3,-24(fp)
 4002aac:	1885883a 	add	r2,r3,r2
 4002ab0:	e0bffa15 	stw	r2,-24(fp)
    }
    vid_round_corner_points(Hcenter, Vcenter, x, y, 0, 0, color, fill, display);
 4002ab4:	e0bfff07 	ldb	r2,-4(fp)
 4002ab8:	e0c00317 	ldw	r3,12(fp)
 4002abc:	d8c00415 	stw	r3,16(sp)
 4002ac0:	d8800315 	stw	r2,12(sp)
 4002ac4:	e0bffe17 	ldw	r2,-8(fp)
 4002ac8:	d8800215 	stw	r2,8(sp)
 4002acc:	d8000115 	stw	zero,4(sp)
 4002ad0:	d8000015 	stw	zero,0(sp)
 4002ad4:	e1fff917 	ldw	r7,-28(fp)
 4002ad8:	e1bff817 	ldw	r6,-32(fp)
 4002adc:	e17ffc17 	ldw	r5,-16(fp)
 4002ae0:	e13ffb17 	ldw	r4,-20(fp)
 4002ae4:	4002ec00 	call	4002ec0 <_Z23vid_round_corner_pointsiiiiiiicP16VIP_FRAME_READER>

  // Start the circle with the top, bottom, left, and right pixels.
  vid_round_corner_points(Hcenter, Vcenter, x, y, 0, 0, color, fill, display);

  // Now start moving out from those points until the lines meet
  while (x < y) {
 4002ae8:	003fd806 	br	4002a4c <__alt_mem_epcs_flash_controller_0+0xfb001a4c>
      y--;
      p += 2*(x-y)+1;
    }
    vid_round_corner_points(Hcenter, Vcenter, x, y, 0, 0, color, fill, display);
  }
  return (0);
 4002aec:	0005883a 	mov	r2,zero
}
 4002af0:	e037883a 	mov	sp,fp
 4002af4:	dfc00117 	ldw	ra,4(sp)
 4002af8:	df000017 	ldw	fp,0(sp)
 4002afc:	dec00204 	addi	sp,sp,8
 4002b00:	f800283a 	ret

04002b04 <_Z25vid_draw_round_corner_boxiiiiiiiP16VIP_FRAME_READER>:
*  to fill in the box.  1 = fill, 0 = do not fill.
*
******************************************************************/
int vid_draw_round_corner_box ( int horiz_start, int vert_start, int horiz_end, int vert_end, 
                                int radius, int color, int fill, alt_video_display* display)
{
 4002b04:	deffec04 	addi	sp,sp,-80
 4002b08:	dfc01315 	stw	ra,76(sp)
 4002b0c:	df001215 	stw	fp,72(sp)
 4002b10:	df001204 	addi	fp,sp,72
 4002b14:	e13ffc15 	stw	r4,-16(fp)
 4002b18:	e17ffd15 	stw	r5,-12(fp)
 4002b1c:	e1bffe15 	stw	r6,-8(fp)
 4002b20:	e1ffff15 	stw	r7,-4(fp)
  int diameter;
  int temp;
  unsigned int width, height, straight_width, straight_height;

  // Make sure the start point us up and left of the end point
  if( horiz_start > horiz_end )
 4002b24:	e0bffc17 	ldw	r2,-16(fp)
 4002b28:	e0fffe17 	ldw	r3,-8(fp)
 4002b2c:	1880060e 	bge	r3,r2,4002b48 <_Z25vid_draw_round_corner_boxiiiiiiiP16VIP_FRAME_READER+0x44>
  {
    temp = horiz_end;
 4002b30:	e0bffe17 	ldw	r2,-8(fp)
 4002b34:	e0bff615 	stw	r2,-40(fp)
    horiz_end = horiz_start;
 4002b38:	e0bffc17 	ldw	r2,-16(fp)
 4002b3c:	e0bffe15 	stw	r2,-8(fp)
    horiz_start = temp;
 4002b40:	e0bff617 	ldw	r2,-40(fp)
 4002b44:	e0bffc15 	stw	r2,-16(fp)
  }
  
  if( vert_start > vert_end )
 4002b48:	e0bffd17 	ldw	r2,-12(fp)
 4002b4c:	e0ffff17 	ldw	r3,-4(fp)
 4002b50:	1880060e 	bge	r3,r2,4002b6c <_Z25vid_draw_round_corner_boxiiiiiiiP16VIP_FRAME_READER+0x68>
  {
    temp = vert_end;
 4002b54:	e0bfff17 	ldw	r2,-4(fp)
 4002b58:	e0bff615 	stw	r2,-40(fp)
    vert_end = vert_start;
 4002b5c:	e0bffd17 	ldw	r2,-12(fp)
 4002b60:	e0bfff15 	stw	r2,-4(fp)
    vert_start = temp;
 4002b64:	e0bff617 	ldw	r2,-40(fp)
 4002b68:	e0bffd15 	stw	r2,-12(fp)
  }
  
  // These are the overall dimensions of the box
  width = horiz_end - horiz_start;
 4002b6c:	e0fffe17 	ldw	r3,-8(fp)
 4002b70:	e0bffc17 	ldw	r2,-16(fp)
 4002b74:	1885c83a 	sub	r2,r3,r2
 4002b78:	e0bff715 	stw	r2,-36(fp)
  height = vert_end - vert_start;
 4002b7c:	e0ffff17 	ldw	r3,-4(fp)
 4002b80:	e0bffd17 	ldw	r2,-12(fp)
 4002b84:	1885c83a 	sub	r2,r3,r2
 4002b88:	e0bff815 	stw	r2,-32(fp)

  // Make sure our radius isnt more than the shortest dimension 
  // of the box, or it'll screw us all up
  if( radius > ( width / 2 ))
 4002b8c:	e0bff717 	ldw	r2,-36(fp)
 4002b90:	1006d07a 	srli	r3,r2,1
 4002b94:	e0800217 	ldw	r2,8(fp)
 4002b98:	1880032e 	bgeu	r3,r2,4002ba8 <_Z25vid_draw_round_corner_boxiiiiiiiP16VIP_FRAME_READER+0xa4>
    radius = width / 2;
 4002b9c:	e0bff717 	ldw	r2,-36(fp)
 4002ba0:	1004d07a 	srli	r2,r2,1
 4002ba4:	e0800215 	stw	r2,8(fp)

  if( radius > ( height / 2 ))
 4002ba8:	e0bff817 	ldw	r2,-32(fp)
 4002bac:	1006d07a 	srli	r3,r2,1
 4002bb0:	e0800217 	ldw	r2,8(fp)
 4002bb4:	1880032e 	bgeu	r3,r2,4002bc4 <_Z25vid_draw_round_corner_boxiiiiiiiP16VIP_FRAME_READER+0xc0>
    radius = height / 2;
 4002bb8:	e0bff817 	ldw	r2,-32(fp)
 4002bbc:	1004d07a 	srli	r2,r2,1
 4002bc0:	e0800215 	stw	r2,8(fp)
  
  // We use the diameter for some calculations, so we'll pre calculate it here.
  diameter = ( radius * 2 );
 4002bc4:	e0800217 	ldw	r2,8(fp)
 4002bc8:	1085883a 	add	r2,r2,r2
 4002bcc:	e0bff915 	stw	r2,-28(fp)

  // These are the lengths of the straight portions of the box edges.
  straight_width = width - diameter;
 4002bd0:	e0bff917 	ldw	r2,-28(fp)
 4002bd4:	e0fff717 	ldw	r3,-36(fp)
 4002bd8:	1885c83a 	sub	r2,r3,r2
 4002bdc:	e0bffa15 	stw	r2,-24(fp)
  straight_height = height - diameter;
 4002be0:	e0bff917 	ldw	r2,-28(fp)
 4002be4:	e0fff817 	ldw	r3,-32(fp)
 4002be8:	1885c83a 	sub	r2,r3,r2
 4002bec:	e0bffb15 	stw	r2,-20(fp)

  x = 0;
 4002bf0:	e03ff315 	stw	zero,-52(fp)
  y = radius;
 4002bf4:	e0800217 	ldw	r2,8(fp)
 4002bf8:	e0bff415 	stw	r2,-48(fp)
  p = (5 - radius*4)/4;
 4002bfc:	e0800217 	ldw	r2,8(fp)
 4002c00:	1085883a 	add	r2,r2,r2
 4002c04:	1085883a 	add	r2,r2,r2
 4002c08:	1007883a 	mov	r3,r2
 4002c0c:	00800144 	movi	r2,5
 4002c10:	10c5c83a 	sub	r2,r2,r3
 4002c14:	1000010e 	bge	r2,zero,4002c1c <_Z25vid_draw_round_corner_boxiiiiiiiP16VIP_FRAME_READER+0x118>
 4002c18:	108000c4 	addi	r2,r2,3
 4002c1c:	1005d0ba 	srai	r2,r2,2
 4002c20:	e0bff515 	stw	r2,-44(fp)
   
  // Start the corners with the top, bottom, left, and right pixels.
  vid_round_corner_points( horiz_start + radius, vert_start + radius, x, y, 
 4002c24:	e0fffc17 	ldw	r3,-16(fp)
 4002c28:	e0800217 	ldw	r2,8(fp)
 4002c2c:	1891883a 	add	r8,r3,r2
 4002c30:	e0fffd17 	ldw	r3,-12(fp)
 4002c34:	e0800217 	ldw	r2,8(fp)
 4002c38:	1893883a 	add	r9,r3,r2
 4002c3c:	e1bff317 	ldw	r6,-52(fp)
 4002c40:	e1fff417 	ldw	r7,-48(fp)
 4002c44:	e0bffa17 	ldw	r2,-24(fp)
 4002c48:	e0fffb17 	ldw	r3,-20(fp)
 4002c4c:	e1000417 	ldw	r4,16(fp)
 4002c50:	21003fcc 	andi	r4,r4,255
 4002c54:	2100201c 	xori	r4,r4,128
 4002c58:	213fe004 	addi	r4,r4,-128
                           straight_width, straight_height, color, fill, display );
 4002c5c:	e1400517 	ldw	r5,20(fp)
 4002c60:	d9400415 	stw	r5,16(sp)
 4002c64:	d9000315 	stw	r4,12(sp)
 4002c68:	e1000317 	ldw	r4,12(fp)
 4002c6c:	d9000215 	stw	r4,8(sp)
 4002c70:	d8c00115 	stw	r3,4(sp)
 4002c74:	d8800015 	stw	r2,0(sp)
 4002c78:	480b883a 	mov	r5,r9
 4002c7c:	4009883a 	mov	r4,r8
 4002c80:	4002ec00 	call	4002ec0 <_Z23vid_round_corner_pointsiiiiiiicP16VIP_FRAME_READER>
  
  // Now start moving out from those points until the lines meet
  while (x < y) {
 4002c84:	e0fff317 	ldw	r3,-52(fp)
 4002c88:	e0bff417 	ldw	r2,-48(fp)
 4002c8c:	1880322e 	bgeu	r3,r2,4002d58 <_Z25vid_draw_round_corner_boxiiiiiiiP16VIP_FRAME_READER+0x254>
    x++;
 4002c90:	e0bff317 	ldw	r2,-52(fp)
 4002c94:	10800044 	addi	r2,r2,1
 4002c98:	e0bff315 	stw	r2,-52(fp)
    if (p < 0) {
 4002c9c:	e0bff517 	ldw	r2,-44(fp)
 4002ca0:	1000080e 	bge	r2,zero,4002cc4 <_Z25vid_draw_round_corner_boxiiiiiiiP16VIP_FRAME_READER+0x1c0>
      p += 2*x+1;
 4002ca4:	e0bff317 	ldw	r2,-52(fp)
 4002ca8:	1085883a 	add	r2,r2,r2
 4002cac:	1007883a 	mov	r3,r2
 4002cb0:	e0bff517 	ldw	r2,-44(fp)
 4002cb4:	1885883a 	add	r2,r3,r2
 4002cb8:	10800044 	addi	r2,r2,1
 4002cbc:	e0bff515 	stw	r2,-44(fp)
 4002cc0:	00000c06 	br	4002cf4 <_Z25vid_draw_round_corner_boxiiiiiiiP16VIP_FRAME_READER+0x1f0>
    } else {
      y--;
 4002cc4:	e0bff417 	ldw	r2,-48(fp)
 4002cc8:	10bfffc4 	addi	r2,r2,-1
 4002ccc:	e0bff415 	stw	r2,-48(fp)
      p += 2*(x-y)+1;
 4002cd0:	e0fff317 	ldw	r3,-52(fp)
 4002cd4:	e0bff417 	ldw	r2,-48(fp)
 4002cd8:	1885c83a 	sub	r2,r3,r2
 4002cdc:	1085883a 	add	r2,r2,r2
 4002ce0:	1007883a 	mov	r3,r2
 4002ce4:	e0bff517 	ldw	r2,-44(fp)
 4002ce8:	1885883a 	add	r2,r3,r2
 4002cec:	10800044 	addi	r2,r2,1
 4002cf0:	e0bff515 	stw	r2,-44(fp)
    }
    vid_round_corner_points( horiz_start + radius, vert_start + radius, x, y, 
 4002cf4:	e0fffc17 	ldw	r3,-16(fp)
 4002cf8:	e0800217 	ldw	r2,8(fp)
 4002cfc:	1891883a 	add	r8,r3,r2
 4002d00:	e0fffd17 	ldw	r3,-12(fp)
 4002d04:	e0800217 	ldw	r2,8(fp)
 4002d08:	1893883a 	add	r9,r3,r2
 4002d0c:	e1bff317 	ldw	r6,-52(fp)
 4002d10:	e1fff417 	ldw	r7,-48(fp)
 4002d14:	e0bffa17 	ldw	r2,-24(fp)
 4002d18:	e0fffb17 	ldw	r3,-20(fp)
 4002d1c:	e1000417 	ldw	r4,16(fp)
 4002d20:	21003fcc 	andi	r4,r4,255
 4002d24:	2100201c 	xori	r4,r4,128
 4002d28:	213fe004 	addi	r4,r4,-128
                             straight_width, straight_height, color, fill, display);
 4002d2c:	e1400517 	ldw	r5,20(fp)
 4002d30:	d9400415 	stw	r5,16(sp)
 4002d34:	d9000315 	stw	r4,12(sp)
 4002d38:	e1000317 	ldw	r4,12(fp)
 4002d3c:	d9000215 	stw	r4,8(sp)
 4002d40:	d8c00115 	stw	r3,4(sp)
 4002d44:	d8800015 	stw	r2,0(sp)
 4002d48:	480b883a 	mov	r5,r9
 4002d4c:	4009883a 	mov	r4,r8
 4002d50:	4002ec00 	call	4002ec0 <_Z23vid_round_corner_pointsiiiiiiicP16VIP_FRAME_READER>
  // Start the corners with the top, bottom, left, and right pixels.
  vid_round_corner_points( horiz_start + radius, vert_start + radius, x, y, 
                           straight_width, straight_height, color, fill, display );
  
  // Now start moving out from those points until the lines meet
  while (x < y) {
 4002d54:	003fcb06 	br	4002c84 <__alt_mem_epcs_flash_controller_0+0xfb001c84>
    vid_round_corner_points( horiz_start + radius, vert_start + radius, x, y, 
                             straight_width, straight_height, color, fill, display);
  }

  // If we want to fill in our box
  if (fill) {
 4002d58:	e0800417 	ldw	r2,16(fp)
 4002d5c:	10001026 	beq	r2,zero,4002da0 <_Z25vid_draw_round_corner_boxiiiiiiiP16VIP_FRAME_READER+0x29c>
     vid_paint_block (horiz_start, vert_start + radius, horiz_end, vert_end - radius, color, display);
 4002d60:	e0fffd17 	ldw	r3,-12(fp)
 4002d64:	e0800217 	ldw	r2,8(fp)
 4002d68:	1889883a 	add	r4,r3,r2
 4002d6c:	e0ffff17 	ldw	r3,-4(fp)
 4002d70:	e0800217 	ldw	r2,8(fp)
 4002d74:	1887c83a 	sub	r3,r3,r2
 4002d78:	e0800517 	ldw	r2,20(fp)
 4002d7c:	d8800115 	stw	r2,4(sp)
 4002d80:	e0800317 	ldw	r2,12(fp)
 4002d84:	d8800015 	stw	r2,0(sp)
 4002d88:	180f883a 	mov	r7,r3
 4002d8c:	e1bffe17 	ldw	r6,-8(fp)
 4002d90:	200b883a 	mov	r5,r4
 4002d94:	e13ffc17 	ldw	r4,-16(fp)
 4002d98:	4001e300 	call	4001e30 <_Z15vid_paint_blockiiiiiP16VIP_FRAME_READER>
 4002d9c:	00004206 	br	4002ea8 <_Z25vid_draw_round_corner_boxiiiiiiiP16VIP_FRAME_READER+0x3a4>
  // If we're not filling in the box, just draw four lines.
  } else {
    vid_draw_line(horiz_start, vert_start + radius, horiz_start, vert_end - radius , 1, color, display); //left
 4002da0:	e0fffd17 	ldw	r3,-12(fp)
 4002da4:	e0800217 	ldw	r2,8(fp)
 4002da8:	1889883a 	add	r4,r3,r2
 4002dac:	e0ffff17 	ldw	r3,-4(fp)
 4002db0:	e0800217 	ldw	r2,8(fp)
 4002db4:	1887c83a 	sub	r3,r3,r2
 4002db8:	e0800517 	ldw	r2,20(fp)
 4002dbc:	d8800215 	stw	r2,8(sp)
 4002dc0:	e0800317 	ldw	r2,12(fp)
 4002dc4:	d8800115 	stw	r2,4(sp)
 4002dc8:	00800044 	movi	r2,1
 4002dcc:	d8800015 	stw	r2,0(sp)
 4002dd0:	180f883a 	mov	r7,r3
 4002dd4:	e1bffc17 	ldw	r6,-16(fp)
 4002dd8:	200b883a 	mov	r5,r4
 4002ddc:	e13ffc17 	ldw	r4,-16(fp)
 4002de0:	4003e100 	call	4003e10 <_Z13vid_draw_lineiiiiiiP16VIP_FRAME_READER>
    vid_draw_line(horiz_end, vert_start + radius, horiz_end, vert_end - radius , 1, color, display); //right
 4002de4:	e0fffd17 	ldw	r3,-12(fp)
 4002de8:	e0800217 	ldw	r2,8(fp)
 4002dec:	1889883a 	add	r4,r3,r2
 4002df0:	e0ffff17 	ldw	r3,-4(fp)
 4002df4:	e0800217 	ldw	r2,8(fp)
 4002df8:	1887c83a 	sub	r3,r3,r2
 4002dfc:	e0800517 	ldw	r2,20(fp)
 4002e00:	d8800215 	stw	r2,8(sp)
 4002e04:	e0800317 	ldw	r2,12(fp)
 4002e08:	d8800115 	stw	r2,4(sp)
 4002e0c:	00800044 	movi	r2,1
 4002e10:	d8800015 	stw	r2,0(sp)
 4002e14:	180f883a 	mov	r7,r3
 4002e18:	e1bffe17 	ldw	r6,-8(fp)
 4002e1c:	200b883a 	mov	r5,r4
 4002e20:	e13ffe17 	ldw	r4,-8(fp)
 4002e24:	4003e100 	call	4003e10 <_Z13vid_draw_lineiiiiiiP16VIP_FRAME_READER>
    vid_draw_line(horiz_start + radius, vert_start, horiz_end - radius , vert_start, 1, color, display); //top
 4002e28:	e0fffc17 	ldw	r3,-16(fp)
 4002e2c:	e0800217 	ldw	r2,8(fp)
 4002e30:	1889883a 	add	r4,r3,r2
 4002e34:	e0fffe17 	ldw	r3,-8(fp)
 4002e38:	e0800217 	ldw	r2,8(fp)
 4002e3c:	1887c83a 	sub	r3,r3,r2
 4002e40:	e0800517 	ldw	r2,20(fp)
 4002e44:	d8800215 	stw	r2,8(sp)
 4002e48:	e0800317 	ldw	r2,12(fp)
 4002e4c:	d8800115 	stw	r2,4(sp)
 4002e50:	00800044 	movi	r2,1
 4002e54:	d8800015 	stw	r2,0(sp)
 4002e58:	e1fffd17 	ldw	r7,-12(fp)
 4002e5c:	180d883a 	mov	r6,r3
 4002e60:	e17ffd17 	ldw	r5,-12(fp)
 4002e64:	4003e100 	call	4003e10 <_Z13vid_draw_lineiiiiiiP16VIP_FRAME_READER>
    vid_draw_line(horiz_start + radius, vert_end, horiz_end - radius , vert_end, 1, color, display); //bottom
 4002e68:	e0fffc17 	ldw	r3,-16(fp)
 4002e6c:	e0800217 	ldw	r2,8(fp)
 4002e70:	1889883a 	add	r4,r3,r2
 4002e74:	e0fffe17 	ldw	r3,-8(fp)
 4002e78:	e0800217 	ldw	r2,8(fp)
 4002e7c:	1887c83a 	sub	r3,r3,r2
 4002e80:	e0800517 	ldw	r2,20(fp)
 4002e84:	d8800215 	stw	r2,8(sp)
 4002e88:	e0800317 	ldw	r2,12(fp)
 4002e8c:	d8800115 	stw	r2,4(sp)
 4002e90:	00800044 	movi	r2,1
 4002e94:	d8800015 	stw	r2,0(sp)
 4002e98:	e1ffff17 	ldw	r7,-4(fp)
 4002e9c:	180d883a 	mov	r6,r3
 4002ea0:	e17fff17 	ldw	r5,-4(fp)
 4002ea4:	4003e100 	call	4003e10 <_Z13vid_draw_lineiiiiiiP16VIP_FRAME_READER>
  }

  return (0);
 4002ea8:	0005883a 	mov	r2,zero
}
 4002eac:	e037883a 	mov	sp,fp
 4002eb0:	dfc00117 	ldw	ra,4(sp)
 4002eb4:	df000017 	ldw	fp,0(sp)
 4002eb8:	dec00204 	addi	sp,sp,8
 4002ebc:	f800283a 	ret

04002ec0 <_Z23vid_round_corner_pointsiiiiiiicP16VIP_FRAME_READER>:
******************************************************************/

void vid_round_corner_points( int cx, int cy, int x, int y, 
                              int straight_width, int straight_height, int color, 
                              char fill, alt_video_display* display)
{
 4002ec0:	defff604 	addi	sp,sp,-40
 4002ec4:	dfc00915 	stw	ra,36(sp)
 4002ec8:	df000815 	stw	fp,32(sp)
 4002ecc:	df000804 	addi	fp,sp,32
 4002ed0:	e13ffb15 	stw	r4,-20(fp)
 4002ed4:	e17ffc15 	stw	r5,-16(fp)
 4002ed8:	e1bffd15 	stw	r6,-12(fp)
 4002edc:	e1fffe15 	stw	r7,-8(fp)
 4002ee0:	e0800517 	ldw	r2,20(fp)
 4002ee4:	e0bfff05 	stb	r2,-4(fp)

    // If we're directly above, below, left and right of center (0 degrees), plot those 4 pixels
    if (x == 0) {
 4002ee8:	e0bffd17 	ldw	r2,-12(fp)
 4002eec:	1000841e 	bne	r2,zero,4003100 <_Z23vid_round_corner_pointsiiiiiiicP16VIP_FRAME_READER+0x240>
        // bottom
        vid_set_pixel(cx, cy + y + straight_height, color, display);
 4002ef0:	e0fffc17 	ldw	r3,-16(fp)
 4002ef4:	e0bffe17 	ldw	r2,-8(fp)
 4002ef8:	1887883a 	add	r3,r3,r2
 4002efc:	e0800317 	ldw	r2,12(fp)
 4002f00:	1885883a 	add	r2,r3,r2
 4002f04:	e0c00417 	ldw	r3,16(fp)
 4002f08:	e1c00617 	ldw	r7,24(fp)
 4002f0c:	180d883a 	mov	r6,r3
 4002f10:	100b883a 	mov	r5,r2
 4002f14:	e13ffb17 	ldw	r4,-20(fp)
 4002f18:	4001c300 	call	4001c30 <_Z13vid_set_pixeliijP16VIP_FRAME_READER>
        vid_set_pixel(cx + straight_width, cy + y + straight_height, color, display);
 4002f1c:	e0fffb17 	ldw	r3,-20(fp)
 4002f20:	e0800217 	ldw	r2,8(fp)
 4002f24:	1889883a 	add	r4,r3,r2
 4002f28:	e0fffc17 	ldw	r3,-16(fp)
 4002f2c:	e0bffe17 	ldw	r2,-8(fp)
 4002f30:	1887883a 	add	r3,r3,r2
 4002f34:	e0800317 	ldw	r2,12(fp)
 4002f38:	1885883a 	add	r2,r3,r2
 4002f3c:	e0c00417 	ldw	r3,16(fp)
 4002f40:	e1c00617 	ldw	r7,24(fp)
 4002f44:	180d883a 	mov	r6,r3
 4002f48:	100b883a 	mov	r5,r2
 4002f4c:	4001c300 	call	4001c30 <_Z13vid_set_pixeliijP16VIP_FRAME_READER>
        // top
        vid_set_pixel(cx, cy - y, color, display);
 4002f50:	e0fffc17 	ldw	r3,-16(fp)
 4002f54:	e0bffe17 	ldw	r2,-8(fp)
 4002f58:	1885c83a 	sub	r2,r3,r2
 4002f5c:	e0c00417 	ldw	r3,16(fp)
 4002f60:	e1c00617 	ldw	r7,24(fp)
 4002f64:	180d883a 	mov	r6,r3
 4002f68:	100b883a 	mov	r5,r2
 4002f6c:	e13ffb17 	ldw	r4,-20(fp)
 4002f70:	4001c300 	call	4001c30 <_Z13vid_set_pixeliijP16VIP_FRAME_READER>
        vid_set_pixel(cx + straight_width, cy - y, color, display);
 4002f74:	e0fffb17 	ldw	r3,-20(fp)
 4002f78:	e0800217 	ldw	r2,8(fp)
 4002f7c:	1889883a 	add	r4,r3,r2
 4002f80:	e0fffc17 	ldw	r3,-16(fp)
 4002f84:	e0bffe17 	ldw	r2,-8(fp)
 4002f88:	1885c83a 	sub	r2,r3,r2
 4002f8c:	e0c00417 	ldw	r3,16(fp)
 4002f90:	e1c00617 	ldw	r7,24(fp)
 4002f94:	180d883a 	mov	r6,r3
 4002f98:	100b883a 	mov	r5,r2
 4002f9c:	4001c300 	call	4001c30 <_Z13vid_set_pixeliijP16VIP_FRAME_READER>

        if(fill) {
 4002fa0:	e0bfff07 	ldb	r2,-4(fp)
 4002fa4:	10002926 	beq	r2,zero,400304c <_Z23vid_round_corner_pointsiiiiiiicP16VIP_FRAME_READER+0x18c>
          vid_draw_line(cx - y, cy, cx + y + straight_width, cy, 1, color, display);
 4002fa8:	e0fffb17 	ldw	r3,-20(fp)
 4002fac:	e0bffe17 	ldw	r2,-8(fp)
 4002fb0:	1889c83a 	sub	r4,r3,r2
 4002fb4:	e0fffb17 	ldw	r3,-20(fp)
 4002fb8:	e0bffe17 	ldw	r2,-8(fp)
 4002fbc:	1887883a 	add	r3,r3,r2
 4002fc0:	e0800217 	ldw	r2,8(fp)
 4002fc4:	1887883a 	add	r3,r3,r2
 4002fc8:	e0800617 	ldw	r2,24(fp)
 4002fcc:	d8800215 	stw	r2,8(sp)
 4002fd0:	e0800417 	ldw	r2,16(fp)
 4002fd4:	d8800115 	stw	r2,4(sp)
 4002fd8:	00800044 	movi	r2,1
 4002fdc:	d8800015 	stw	r2,0(sp)
 4002fe0:	e1fffc17 	ldw	r7,-16(fp)
 4002fe4:	180d883a 	mov	r6,r3
 4002fe8:	e17ffc17 	ldw	r5,-16(fp)
 4002fec:	4003e100 	call	4003e10 <_Z13vid_draw_lineiiiiiiP16VIP_FRAME_READER>
          vid_draw_line(cx - y, cy + straight_height, cx + y + straight_width, cy + straight_height, 1, color, display);
 4002ff0:	e0fffb17 	ldw	r3,-20(fp)
 4002ff4:	e0bffe17 	ldw	r2,-8(fp)
 4002ff8:	1889c83a 	sub	r4,r3,r2
 4002ffc:	e0fffc17 	ldw	r3,-16(fp)
 4003000:	e0800317 	ldw	r2,12(fp)
 4003004:	188b883a 	add	r5,r3,r2
 4003008:	e0fffb17 	ldw	r3,-20(fp)
 400300c:	e0bffe17 	ldw	r2,-8(fp)
 4003010:	1887883a 	add	r3,r3,r2
 4003014:	e0800217 	ldw	r2,8(fp)
 4003018:	188d883a 	add	r6,r3,r2
 400301c:	e0fffc17 	ldw	r3,-16(fp)
 4003020:	e0800317 	ldw	r2,12(fp)
 4003024:	1887883a 	add	r3,r3,r2
 4003028:	e0800617 	ldw	r2,24(fp)
 400302c:	d8800215 	stw	r2,8(sp)
 4003030:	e0800417 	ldw	r2,16(fp)
 4003034:	d8800115 	stw	r2,4(sp)
 4003038:	00800044 	movi	r2,1
 400303c:	d8800015 	stw	r2,0(sp)
 4003040:	180f883a 	mov	r7,r3
 4003044:	4003e100 	call	4003e10 <_Z13vid_draw_lineiiiiiiP16VIP_FRAME_READER>
          vid_set_pixel(cx - y, cy + x + straight_height, color, display);
          vid_set_pixel(cx + y + straight_width, cy - x, color, display);
          vid_set_pixel(cx - y, cy - x, color, display);
        }
    }
}
 4003048:	00016606 	br	40035e4 <_Z23vid_round_corner_pointsiiiiiiicP16VIP_FRAME_READER+0x724>
        if(fill) {
          vid_draw_line(cx - y, cy, cx + y + straight_width, cy, 1, color, display);
          vid_draw_line(cx - y, cy + straight_height, cx + y + straight_width, cy + straight_height, 1, color, display);
        } else {
          //right
          vid_set_pixel(cx + y + straight_width, cy, color, display);
 400304c:	e0fffb17 	ldw	r3,-20(fp)
 4003050:	e0bffe17 	ldw	r2,-8(fp)
 4003054:	1887883a 	add	r3,r3,r2
 4003058:	e0800217 	ldw	r2,8(fp)
 400305c:	1885883a 	add	r2,r3,r2
 4003060:	e0c00417 	ldw	r3,16(fp)
 4003064:	e1c00617 	ldw	r7,24(fp)
 4003068:	180d883a 	mov	r6,r3
 400306c:	e17ffc17 	ldw	r5,-16(fp)
 4003070:	1009883a 	mov	r4,r2
 4003074:	4001c300 	call	4001c30 <_Z13vid_set_pixeliijP16VIP_FRAME_READER>
          vid_set_pixel(cx + y + straight_width, cy + straight_height, color, display);
 4003078:	e0fffb17 	ldw	r3,-20(fp)
 400307c:	e0bffe17 	ldw	r2,-8(fp)
 4003080:	1887883a 	add	r3,r3,r2
 4003084:	e0800217 	ldw	r2,8(fp)
 4003088:	1889883a 	add	r4,r3,r2
 400308c:	e0fffc17 	ldw	r3,-16(fp)
 4003090:	e0800317 	ldw	r2,12(fp)
 4003094:	1885883a 	add	r2,r3,r2
 4003098:	e0c00417 	ldw	r3,16(fp)
 400309c:	e1c00617 	ldw	r7,24(fp)
 40030a0:	180d883a 	mov	r6,r3
 40030a4:	100b883a 	mov	r5,r2
 40030a8:	4001c300 	call	4001c30 <_Z13vid_set_pixeliijP16VIP_FRAME_READER>
          //left
          vid_set_pixel(cx - y, cy, color, display);
 40030ac:	e0fffb17 	ldw	r3,-20(fp)
 40030b0:	e0bffe17 	ldw	r2,-8(fp)
 40030b4:	1885c83a 	sub	r2,r3,r2
 40030b8:	e0c00417 	ldw	r3,16(fp)
 40030bc:	e1c00617 	ldw	r7,24(fp)
 40030c0:	180d883a 	mov	r6,r3
 40030c4:	e17ffc17 	ldw	r5,-16(fp)
 40030c8:	1009883a 	mov	r4,r2
 40030cc:	4001c300 	call	4001c30 <_Z13vid_set_pixeliijP16VIP_FRAME_READER>
          vid_set_pixel(cx - y, cy + straight_height, color, display);
 40030d0:	e0fffb17 	ldw	r3,-20(fp)
 40030d4:	e0bffe17 	ldw	r2,-8(fp)
 40030d8:	1889c83a 	sub	r4,r3,r2
 40030dc:	e0fffc17 	ldw	r3,-16(fp)
 40030e0:	e0800317 	ldw	r2,12(fp)
 40030e4:	1885883a 	add	r2,r3,r2
 40030e8:	e0c00417 	ldw	r3,16(fp)
 40030ec:	e1c00617 	ldw	r7,24(fp)
 40030f0:	180d883a 	mov	r6,r3
 40030f4:	100b883a 	mov	r5,r2
 40030f8:	4001c300 	call	4001c30 <_Z13vid_set_pixeliijP16VIP_FRAME_READER>
          vid_set_pixel(cx - y, cy + x + straight_height, color, display);
          vid_set_pixel(cx + y + straight_width, cy - x, color, display);
          vid_set_pixel(cx - y, cy - x, color, display);
        }
    }
}
 40030fc:	00013906 	br	40035e4 <_Z23vid_round_corner_pointsiiiiiiicP16VIP_FRAME_READER+0x724>
          vid_set_pixel(cx - y, cy + straight_height, color, display);
        }

    } else
    // If we've reached the 45 degree points (x=y), plot those 4 pixels
    if (x == y) {
 4003100:	e0fffd17 	ldw	r3,-12(fp)
 4003104:	e0bffe17 	ldw	r2,-8(fp)
 4003108:	1880681e 	bne	r3,r2,40032ac <_Z23vid_round_corner_pointsiiiiiiicP16VIP_FRAME_READER+0x3ec>
      if(fill) {
 400310c:	e0bfff07 	ldb	r2,-4(fp)
 4003110:	10003126 	beq	r2,zero,40031d8 <_Z23vid_round_corner_pointsiiiiiiicP16VIP_FRAME_READER+0x318>
        vid_draw_line(cx - x, cy + y + straight_height, cx + x + straight_width, cy + y + straight_height, 1, color, display); // lower
 4003114:	e0fffb17 	ldw	r3,-20(fp)
 4003118:	e0bffd17 	ldw	r2,-12(fp)
 400311c:	1889c83a 	sub	r4,r3,r2
 4003120:	e0fffc17 	ldw	r3,-16(fp)
 4003124:	e0bffe17 	ldw	r2,-8(fp)
 4003128:	1887883a 	add	r3,r3,r2
 400312c:	e0800317 	ldw	r2,12(fp)
 4003130:	188b883a 	add	r5,r3,r2
 4003134:	e0fffb17 	ldw	r3,-20(fp)
 4003138:	e0bffd17 	ldw	r2,-12(fp)
 400313c:	1887883a 	add	r3,r3,r2
 4003140:	e0800217 	ldw	r2,8(fp)
 4003144:	188d883a 	add	r6,r3,r2
 4003148:	e0fffc17 	ldw	r3,-16(fp)
 400314c:	e0bffe17 	ldw	r2,-8(fp)
 4003150:	1887883a 	add	r3,r3,r2
 4003154:	e0800317 	ldw	r2,12(fp)
 4003158:	1887883a 	add	r3,r3,r2
 400315c:	e0800617 	ldw	r2,24(fp)
 4003160:	d8800215 	stw	r2,8(sp)
 4003164:	e0800417 	ldw	r2,16(fp)
 4003168:	d8800115 	stw	r2,4(sp)
 400316c:	00800044 	movi	r2,1
 4003170:	d8800015 	stw	r2,0(sp)
 4003174:	180f883a 	mov	r7,r3
 4003178:	4003e100 	call	4003e10 <_Z13vid_draw_lineiiiiiiP16VIP_FRAME_READER>
        vid_draw_line(cx - x, cy - y, cx + x + straight_width, cy - y, 1, color, display); // upper
 400317c:	e0fffb17 	ldw	r3,-20(fp)
 4003180:	e0bffd17 	ldw	r2,-12(fp)
 4003184:	1889c83a 	sub	r4,r3,r2
 4003188:	e0fffc17 	ldw	r3,-16(fp)
 400318c:	e0bffe17 	ldw	r2,-8(fp)
 4003190:	188bc83a 	sub	r5,r3,r2
 4003194:	e0fffb17 	ldw	r3,-20(fp)
 4003198:	e0bffd17 	ldw	r2,-12(fp)
 400319c:	1887883a 	add	r3,r3,r2
 40031a0:	e0800217 	ldw	r2,8(fp)
 40031a4:	188d883a 	add	r6,r3,r2
 40031a8:	e0fffc17 	ldw	r3,-16(fp)
 40031ac:	e0bffe17 	ldw	r2,-8(fp)
 40031b0:	1887c83a 	sub	r3,r3,r2
 40031b4:	e0800617 	ldw	r2,24(fp)
 40031b8:	d8800215 	stw	r2,8(sp)
 40031bc:	e0800417 	ldw	r2,16(fp)
 40031c0:	d8800115 	stw	r2,4(sp)
 40031c4:	00800044 	movi	r2,1
 40031c8:	d8800015 	stw	r2,0(sp)
 40031cc:	180f883a 	mov	r7,r3
 40031d0:	4003e100 	call	4003e10 <_Z13vid_draw_lineiiiiiiP16VIP_FRAME_READER>
          vid_set_pixel(cx - y, cy + x + straight_height, color, display);
          vid_set_pixel(cx + y + straight_width, cy - x, color, display);
          vid_set_pixel(cx - y, cy - x, color, display);
        }
    }
}
 40031d4:	00010306 	br	40035e4 <_Z23vid_round_corner_pointsiiiiiiicP16VIP_FRAME_READER+0x724>
      if(fill) {
        vid_draw_line(cx - x, cy + y + straight_height, cx + x + straight_width, cy + y + straight_height, 1, color, display); // lower
        vid_draw_line(cx - x, cy - y, cx + x + straight_width, cy - y, 1, color, display); // upper
        
      } else {
        vid_set_pixel(cx + x + straight_width, cy + y + straight_height, color, display); // bottom right
 40031d8:	e0fffb17 	ldw	r3,-20(fp)
 40031dc:	e0bffd17 	ldw	r2,-12(fp)
 40031e0:	1887883a 	add	r3,r3,r2
 40031e4:	e0800217 	ldw	r2,8(fp)
 40031e8:	1889883a 	add	r4,r3,r2
 40031ec:	e0fffc17 	ldw	r3,-16(fp)
 40031f0:	e0bffe17 	ldw	r2,-8(fp)
 40031f4:	1887883a 	add	r3,r3,r2
 40031f8:	e0800317 	ldw	r2,12(fp)
 40031fc:	1885883a 	add	r2,r3,r2
 4003200:	e0c00417 	ldw	r3,16(fp)
 4003204:	e1c00617 	ldw	r7,24(fp)
 4003208:	180d883a 	mov	r6,r3
 400320c:	100b883a 	mov	r5,r2
 4003210:	4001c300 	call	4001c30 <_Z13vid_set_pixeliijP16VIP_FRAME_READER>
        vid_set_pixel(cx - x, cy + y + straight_height, color, display); // bottom left
 4003214:	e0fffb17 	ldw	r3,-20(fp)
 4003218:	e0bffd17 	ldw	r2,-12(fp)
 400321c:	1889c83a 	sub	r4,r3,r2
 4003220:	e0fffc17 	ldw	r3,-16(fp)
 4003224:	e0bffe17 	ldw	r2,-8(fp)
 4003228:	1887883a 	add	r3,r3,r2
 400322c:	e0800317 	ldw	r2,12(fp)
 4003230:	1885883a 	add	r2,r3,r2
 4003234:	e0c00417 	ldw	r3,16(fp)
 4003238:	e1c00617 	ldw	r7,24(fp)
 400323c:	180d883a 	mov	r6,r3
 4003240:	100b883a 	mov	r5,r2
 4003244:	4001c300 	call	4001c30 <_Z13vid_set_pixeliijP16VIP_FRAME_READER>
        vid_set_pixel(cx + x + straight_width, cy - y, color, display); // top right
 4003248:	e0fffb17 	ldw	r3,-20(fp)
 400324c:	e0bffd17 	ldw	r2,-12(fp)
 4003250:	1887883a 	add	r3,r3,r2
 4003254:	e0800217 	ldw	r2,8(fp)
 4003258:	1889883a 	add	r4,r3,r2
 400325c:	e0fffc17 	ldw	r3,-16(fp)
 4003260:	e0bffe17 	ldw	r2,-8(fp)
 4003264:	1885c83a 	sub	r2,r3,r2
 4003268:	e0c00417 	ldw	r3,16(fp)
 400326c:	e1c00617 	ldw	r7,24(fp)
 4003270:	180d883a 	mov	r6,r3
 4003274:	100b883a 	mov	r5,r2
 4003278:	4001c300 	call	4001c30 <_Z13vid_set_pixeliijP16VIP_FRAME_READER>
        vid_set_pixel(cx - x, cy - y, color, display); // top left
 400327c:	e0fffb17 	ldw	r3,-20(fp)
 4003280:	e0bffd17 	ldw	r2,-12(fp)
 4003284:	1889c83a 	sub	r4,r3,r2
 4003288:	e0fffc17 	ldw	r3,-16(fp)
 400328c:	e0bffe17 	ldw	r2,-8(fp)
 4003290:	1885c83a 	sub	r2,r3,r2
 4003294:	e0c00417 	ldw	r3,16(fp)
 4003298:	e1c00617 	ldw	r7,24(fp)
 400329c:	180d883a 	mov	r6,r3
 40032a0:	100b883a 	mov	r5,r2
 40032a4:	4001c300 	call	4001c30 <_Z13vid_set_pixeliijP16VIP_FRAME_READER>
          vid_set_pixel(cx - y, cy + x + straight_height, color, display);
          vid_set_pixel(cx + y + straight_width, cy - x, color, display);
          vid_set_pixel(cx - y, cy - x, color, display);
        }
    }
}
 40032a8:	0000ce06 	br	40035e4 <_Z23vid_round_corner_pointsiiiiiiicP16VIP_FRAME_READER+0x724>
        vid_set_pixel(cx + x + straight_width, cy - y, color, display); // top right
        vid_set_pixel(cx - x, cy - y, color, display); // top left
      }
    } else
    // If we're between 0 and 45 degrees plot 8 pixels.
    if (x < y) {
 40032ac:	e0fffd17 	ldw	r3,-12(fp)
 40032b0:	e0bffe17 	ldw	r2,-8(fp)
 40032b4:	1880cb0e 	bge	r3,r2,40035e4 <_Z23vid_round_corner_pointsiiiiiiicP16VIP_FRAME_READER+0x724>
        if(fill) {
 40032b8:	e0bfff07 	ldb	r2,-4(fp)
 40032bc:	10006126 	beq	r2,zero,4003444 <_Z23vid_round_corner_pointsiiiiiiicP16VIP_FRAME_READER+0x584>
          vid_draw_line(cx - x, cy + y + straight_height, cx + x + straight_width, cy + y + straight_height, 1, color, display);
 40032c0:	e0fffb17 	ldw	r3,-20(fp)
 40032c4:	e0bffd17 	ldw	r2,-12(fp)
 40032c8:	1889c83a 	sub	r4,r3,r2
 40032cc:	e0fffc17 	ldw	r3,-16(fp)
 40032d0:	e0bffe17 	ldw	r2,-8(fp)
 40032d4:	1887883a 	add	r3,r3,r2
 40032d8:	e0800317 	ldw	r2,12(fp)
 40032dc:	188b883a 	add	r5,r3,r2
 40032e0:	e0fffb17 	ldw	r3,-20(fp)
 40032e4:	e0bffd17 	ldw	r2,-12(fp)
 40032e8:	1887883a 	add	r3,r3,r2
 40032ec:	e0800217 	ldw	r2,8(fp)
 40032f0:	188d883a 	add	r6,r3,r2
 40032f4:	e0fffc17 	ldw	r3,-16(fp)
 40032f8:	e0bffe17 	ldw	r2,-8(fp)
 40032fc:	1887883a 	add	r3,r3,r2
 4003300:	e0800317 	ldw	r2,12(fp)
 4003304:	1887883a 	add	r3,r3,r2
 4003308:	e0800617 	ldw	r2,24(fp)
 400330c:	d8800215 	stw	r2,8(sp)
 4003310:	e0800417 	ldw	r2,16(fp)
 4003314:	d8800115 	stw	r2,4(sp)
 4003318:	00800044 	movi	r2,1
 400331c:	d8800015 	stw	r2,0(sp)
 4003320:	180f883a 	mov	r7,r3
 4003324:	4003e100 	call	4003e10 <_Z13vid_draw_lineiiiiiiP16VIP_FRAME_READER>
          vid_draw_line(cx - y, cy + x + straight_height, cx + y + straight_width, cy + x + straight_height, 1, color, display);
 4003328:	e0fffb17 	ldw	r3,-20(fp)
 400332c:	e0bffe17 	ldw	r2,-8(fp)
 4003330:	1889c83a 	sub	r4,r3,r2
 4003334:	e0fffc17 	ldw	r3,-16(fp)
 4003338:	e0bffd17 	ldw	r2,-12(fp)
 400333c:	1887883a 	add	r3,r3,r2
 4003340:	e0800317 	ldw	r2,12(fp)
 4003344:	188b883a 	add	r5,r3,r2
 4003348:	e0fffb17 	ldw	r3,-20(fp)
 400334c:	e0bffe17 	ldw	r2,-8(fp)
 4003350:	1887883a 	add	r3,r3,r2
 4003354:	e0800217 	ldw	r2,8(fp)
 4003358:	188d883a 	add	r6,r3,r2
 400335c:	e0fffc17 	ldw	r3,-16(fp)
 4003360:	e0bffd17 	ldw	r2,-12(fp)
 4003364:	1887883a 	add	r3,r3,r2
 4003368:	e0800317 	ldw	r2,12(fp)
 400336c:	1887883a 	add	r3,r3,r2
 4003370:	e0800617 	ldw	r2,24(fp)
 4003374:	d8800215 	stw	r2,8(sp)
 4003378:	e0800417 	ldw	r2,16(fp)
 400337c:	d8800115 	stw	r2,4(sp)
 4003380:	00800044 	movi	r2,1
 4003384:	d8800015 	stw	r2,0(sp)
 4003388:	180f883a 	mov	r7,r3
 400338c:	4003e100 	call	4003e10 <_Z13vid_draw_lineiiiiiiP16VIP_FRAME_READER>
          vid_draw_line(cx - y, cy - x, cx + y + straight_width, cy - x, 1, color, display);
 4003390:	e0fffb17 	ldw	r3,-20(fp)
 4003394:	e0bffe17 	ldw	r2,-8(fp)
 4003398:	1889c83a 	sub	r4,r3,r2
 400339c:	e0fffc17 	ldw	r3,-16(fp)
 40033a0:	e0bffd17 	ldw	r2,-12(fp)
 40033a4:	188bc83a 	sub	r5,r3,r2
 40033a8:	e0fffb17 	ldw	r3,-20(fp)
 40033ac:	e0bffe17 	ldw	r2,-8(fp)
 40033b0:	1887883a 	add	r3,r3,r2
 40033b4:	e0800217 	ldw	r2,8(fp)
 40033b8:	188d883a 	add	r6,r3,r2
 40033bc:	e0fffc17 	ldw	r3,-16(fp)
 40033c0:	e0bffd17 	ldw	r2,-12(fp)
 40033c4:	1887c83a 	sub	r3,r3,r2
 40033c8:	e0800617 	ldw	r2,24(fp)
 40033cc:	d8800215 	stw	r2,8(sp)
 40033d0:	e0800417 	ldw	r2,16(fp)
 40033d4:	d8800115 	stw	r2,4(sp)
 40033d8:	00800044 	movi	r2,1
 40033dc:	d8800015 	stw	r2,0(sp)
 40033e0:	180f883a 	mov	r7,r3
 40033e4:	4003e100 	call	4003e10 <_Z13vid_draw_lineiiiiiiP16VIP_FRAME_READER>
          vid_draw_line(cx - x, cy - y, cx + x + straight_width, cy - y, 1, color, display);
 40033e8:	e0fffb17 	ldw	r3,-20(fp)
 40033ec:	e0bffd17 	ldw	r2,-12(fp)
 40033f0:	1889c83a 	sub	r4,r3,r2
 40033f4:	e0fffc17 	ldw	r3,-16(fp)
 40033f8:	e0bffe17 	ldw	r2,-8(fp)
 40033fc:	188bc83a 	sub	r5,r3,r2
 4003400:	e0fffb17 	ldw	r3,-20(fp)
 4003404:	e0bffd17 	ldw	r2,-12(fp)
 4003408:	1887883a 	add	r3,r3,r2
 400340c:	e0800217 	ldw	r2,8(fp)
 4003410:	188d883a 	add	r6,r3,r2
 4003414:	e0fffc17 	ldw	r3,-16(fp)
 4003418:	e0bffe17 	ldw	r2,-8(fp)
 400341c:	1887c83a 	sub	r3,r3,r2
 4003420:	e0800617 	ldw	r2,24(fp)
 4003424:	d8800215 	stw	r2,8(sp)
 4003428:	e0800417 	ldw	r2,16(fp)
 400342c:	d8800115 	stw	r2,4(sp)
 4003430:	00800044 	movi	r2,1
 4003434:	d8800015 	stw	r2,0(sp)
 4003438:	180f883a 	mov	r7,r3
 400343c:	4003e100 	call	4003e10 <_Z13vid_draw_lineiiiiiiP16VIP_FRAME_READER>
          vid_set_pixel(cx - y, cy + x + straight_height, color, display);
          vid_set_pixel(cx + y + straight_width, cy - x, color, display);
          vid_set_pixel(cx - y, cy - x, color, display);
        }
    }
}
 4003440:	00006806 	br	40035e4 <_Z23vid_round_corner_pointsiiiiiiicP16VIP_FRAME_READER+0x724>
          vid_draw_line(cx - x, cy + y + straight_height, cx + x + straight_width, cy + y + straight_height, 1, color, display);
          vid_draw_line(cx - y, cy + x + straight_height, cx + y + straight_width, cy + x + straight_height, 1, color, display);
          vid_draw_line(cx - y, cy - x, cx + y + straight_width, cy - x, 1, color, display);
          vid_draw_line(cx - x, cy - y, cx + x + straight_width, cy - y, 1, color, display);
        } else {
          vid_set_pixel(cx + x + straight_width, cy + y + straight_height, color, display);
 4003444:	e0fffb17 	ldw	r3,-20(fp)
 4003448:	e0bffd17 	ldw	r2,-12(fp)
 400344c:	1887883a 	add	r3,r3,r2
 4003450:	e0800217 	ldw	r2,8(fp)
 4003454:	1889883a 	add	r4,r3,r2
 4003458:	e0fffc17 	ldw	r3,-16(fp)
 400345c:	e0bffe17 	ldw	r2,-8(fp)
 4003460:	1887883a 	add	r3,r3,r2
 4003464:	e0800317 	ldw	r2,12(fp)
 4003468:	1885883a 	add	r2,r3,r2
 400346c:	e0c00417 	ldw	r3,16(fp)
 4003470:	e1c00617 	ldw	r7,24(fp)
 4003474:	180d883a 	mov	r6,r3
 4003478:	100b883a 	mov	r5,r2
 400347c:	4001c300 	call	4001c30 <_Z13vid_set_pixeliijP16VIP_FRAME_READER>
          vid_set_pixel(cx - x, cy + y + straight_height, color, display);
 4003480:	e0fffb17 	ldw	r3,-20(fp)
 4003484:	e0bffd17 	ldw	r2,-12(fp)
 4003488:	1889c83a 	sub	r4,r3,r2
 400348c:	e0fffc17 	ldw	r3,-16(fp)
 4003490:	e0bffe17 	ldw	r2,-8(fp)
 4003494:	1887883a 	add	r3,r3,r2
 4003498:	e0800317 	ldw	r2,12(fp)
 400349c:	1885883a 	add	r2,r3,r2
 40034a0:	e0c00417 	ldw	r3,16(fp)
 40034a4:	e1c00617 	ldw	r7,24(fp)
 40034a8:	180d883a 	mov	r6,r3
 40034ac:	100b883a 	mov	r5,r2
 40034b0:	4001c300 	call	4001c30 <_Z13vid_set_pixeliijP16VIP_FRAME_READER>
          vid_set_pixel(cx + x + straight_width, cy - y, color, display);
 40034b4:	e0fffb17 	ldw	r3,-20(fp)
 40034b8:	e0bffd17 	ldw	r2,-12(fp)
 40034bc:	1887883a 	add	r3,r3,r2
 40034c0:	e0800217 	ldw	r2,8(fp)
 40034c4:	1889883a 	add	r4,r3,r2
 40034c8:	e0fffc17 	ldw	r3,-16(fp)
 40034cc:	e0bffe17 	ldw	r2,-8(fp)
 40034d0:	1885c83a 	sub	r2,r3,r2
 40034d4:	e0c00417 	ldw	r3,16(fp)
 40034d8:	e1c00617 	ldw	r7,24(fp)
 40034dc:	180d883a 	mov	r6,r3
 40034e0:	100b883a 	mov	r5,r2
 40034e4:	4001c300 	call	4001c30 <_Z13vid_set_pixeliijP16VIP_FRAME_READER>
          vid_set_pixel(cx - x, cy - y, color, display);
 40034e8:	e0fffb17 	ldw	r3,-20(fp)
 40034ec:	e0bffd17 	ldw	r2,-12(fp)
 40034f0:	1889c83a 	sub	r4,r3,r2
 40034f4:	e0fffc17 	ldw	r3,-16(fp)
 40034f8:	e0bffe17 	ldw	r2,-8(fp)
 40034fc:	1885c83a 	sub	r2,r3,r2
 4003500:	e0c00417 	ldw	r3,16(fp)
 4003504:	e1c00617 	ldw	r7,24(fp)
 4003508:	180d883a 	mov	r6,r3
 400350c:	100b883a 	mov	r5,r2
 4003510:	4001c300 	call	4001c30 <_Z13vid_set_pixeliijP16VIP_FRAME_READER>
          vid_set_pixel(cx + y + straight_width, cy + x + straight_height, color, display);
 4003514:	e0fffb17 	ldw	r3,-20(fp)
 4003518:	e0bffe17 	ldw	r2,-8(fp)
 400351c:	1887883a 	add	r3,r3,r2
 4003520:	e0800217 	ldw	r2,8(fp)
 4003524:	1889883a 	add	r4,r3,r2
 4003528:	e0fffc17 	ldw	r3,-16(fp)
 400352c:	e0bffd17 	ldw	r2,-12(fp)
 4003530:	1887883a 	add	r3,r3,r2
 4003534:	e0800317 	ldw	r2,12(fp)
 4003538:	1885883a 	add	r2,r3,r2
 400353c:	e0c00417 	ldw	r3,16(fp)
 4003540:	e1c00617 	ldw	r7,24(fp)
 4003544:	180d883a 	mov	r6,r3
 4003548:	100b883a 	mov	r5,r2
 400354c:	4001c300 	call	4001c30 <_Z13vid_set_pixeliijP16VIP_FRAME_READER>
          vid_set_pixel(cx - y, cy + x + straight_height, color, display);
 4003550:	e0fffb17 	ldw	r3,-20(fp)
 4003554:	e0bffe17 	ldw	r2,-8(fp)
 4003558:	1889c83a 	sub	r4,r3,r2
 400355c:	e0fffc17 	ldw	r3,-16(fp)
 4003560:	e0bffd17 	ldw	r2,-12(fp)
 4003564:	1887883a 	add	r3,r3,r2
 4003568:	e0800317 	ldw	r2,12(fp)
 400356c:	1885883a 	add	r2,r3,r2
 4003570:	e0c00417 	ldw	r3,16(fp)
 4003574:	e1c00617 	ldw	r7,24(fp)
 4003578:	180d883a 	mov	r6,r3
 400357c:	100b883a 	mov	r5,r2
 4003580:	4001c300 	call	4001c30 <_Z13vid_set_pixeliijP16VIP_FRAME_READER>
          vid_set_pixel(cx + y + straight_width, cy - x, color, display);
 4003584:	e0fffb17 	ldw	r3,-20(fp)
 4003588:	e0bffe17 	ldw	r2,-8(fp)
 400358c:	1887883a 	add	r3,r3,r2
 4003590:	e0800217 	ldw	r2,8(fp)
 4003594:	1889883a 	add	r4,r3,r2
 4003598:	e0fffc17 	ldw	r3,-16(fp)
 400359c:	e0bffd17 	ldw	r2,-12(fp)
 40035a0:	1885c83a 	sub	r2,r3,r2
 40035a4:	e0c00417 	ldw	r3,16(fp)
 40035a8:	e1c00617 	ldw	r7,24(fp)
 40035ac:	180d883a 	mov	r6,r3
 40035b0:	100b883a 	mov	r5,r2
 40035b4:	4001c300 	call	4001c30 <_Z13vid_set_pixeliijP16VIP_FRAME_READER>
          vid_set_pixel(cx - y, cy - x, color, display);
 40035b8:	e0fffb17 	ldw	r3,-20(fp)
 40035bc:	e0bffe17 	ldw	r2,-8(fp)
 40035c0:	1889c83a 	sub	r4,r3,r2
 40035c4:	e0fffc17 	ldw	r3,-16(fp)
 40035c8:	e0bffd17 	ldw	r2,-12(fp)
 40035cc:	1885c83a 	sub	r2,r3,r2
 40035d0:	e0c00417 	ldw	r3,16(fp)
 40035d4:	e1c00617 	ldw	r7,24(fp)
 40035d8:	180d883a 	mov	r6,r3
 40035dc:	100b883a 	mov	r5,r2
 40035e0:	4001c300 	call	4001c30 <_Z13vid_set_pixeliijP16VIP_FRAME_READER>
        }
    }
}
 40035e4:	0001883a 	nop
 40035e8:	e037883a 	mov	sp,fp
 40035ec:	dfc00117 	ldw	ra,4(sp)
 40035f0:	df000017 	ldw	fp,0(sp)
 40035f4:	dec00204 	addi	sp,sp,8
 40035f8:	f800283a 	ret

040035fc <_Z19vid_bres_scan_edgesiiiiPi>:
*            filled shapes where you fill by drawing successive
*            horizontal lines.
*
******************************************************************/
void vid_bres_scan_edges( int x1, int y1, int x2, int y2, int *span_array) 
{
 40035fc:	deffee04 	addi	sp,sp,-72
 4003600:	dfc01115 	stw	ra,68(sp)
 4003604:	df001015 	stw	fp,64(sp)
 4003608:	df001004 	addi	fp,sp,64
 400360c:	e13ffc15 	stw	r4,-16(fp)
 4003610:	e17ffd15 	stw	r5,-12(fp)
 4003614:	e1bffe15 	stw	r6,-8(fp)
 4003618:	e1ffff15 	stw	r7,-4(fp)

  int x_incr, y_incr;
  int y_delta, x_delta;

  // Assure we always draw left to right
  if( x1 > x2 )
 400361c:	e0bffc17 	ldw	r2,-16(fp)
 4003620:	e0fffe17 	ldw	r3,-8(fp)
 4003624:	18800c0e 	bge	r3,r2,4003658 <_Z19vid_bres_scan_edgesiiiiPi+0x5c>
  {
    int tempx = x2;
 4003628:	e0bffe17 	ldw	r2,-8(fp)
 400362c:	e0bff515 	stw	r2,-44(fp)
    x2 = x1;
 4003630:	e0bffc17 	ldw	r2,-16(fp)
 4003634:	e0bffe15 	stw	r2,-8(fp)
    x1 = tempx;
 4003638:	e0bff517 	ldw	r2,-44(fp)
 400363c:	e0bffc15 	stw	r2,-16(fp)
    int tempy = y2;
 4003640:	e0bfff17 	ldw	r2,-4(fp)
 4003644:	e0bff615 	stw	r2,-40(fp)
    y2 = y1;
 4003648:	e0bffd17 	ldw	r2,-12(fp)
 400364c:	e0bfff15 	stw	r2,-4(fp)
    y1 = tempy;
 4003650:	e0bff617 	ldw	r2,-40(fp)
 4003654:	e0bffd15 	stw	r2,-12(fp)
  }
  
  // Find the vertical and horizontal distance between the two points
  y_delta = abs(y1-y2);
 4003658:	e0fffd17 	ldw	r3,-12(fp)
 400365c:	e0bfff17 	ldw	r2,-4(fp)
 4003660:	1885c83a 	sub	r2,r3,r2
 4003664:	1000010e 	bge	r2,zero,400366c <_Z19vid_bres_scan_edgesiiiiPi+0x70>
 4003668:	0085c83a 	sub	r2,zero,r2
 400366c:	e0bff115 	stw	r2,-60(fp)
  x_delta = (x2-x1);
 4003670:	e0fffe17 	ldw	r3,-8(fp)
 4003674:	e0bffc17 	ldw	r2,-16(fp)
 4003678:	1885c83a 	sub	r2,r3,r2
 400367c:	e0bff215 	stw	r2,-56(fp)

  // Find out what direction we are going
  if (y1 > y2) { y_incr=-1; } else { y_incr=1; }
 4003680:	e0bffd17 	ldw	r2,-12(fp)
 4003684:	e0ffff17 	ldw	r3,-4(fp)
 4003688:	1880030e 	bge	r3,r2,4003698 <_Z19vid_bres_scan_edgesiiiiPi+0x9c>
 400368c:	00bfffc4 	movi	r2,-1
 4003690:	e0bff015 	stw	r2,-64(fp)
 4003694:	00000206 	br	40036a0 <_Z19vid_bres_scan_edgesiiiiPi+0xa4>
 4003698:	00800044 	movi	r2,1
 400369c:	e0bff015 	stw	r2,-64(fp)
  x_incr=1;
 40036a0:	00800044 	movi	r2,1
 40036a4:	e0bff715 	stw	r2,-36(fp)

  // Find out which axis is always incremented when drawing the line
  // If it's the horizontal axis
  if (x_delta >= y_delta) {
 40036a8:	e0fff217 	ldw	r3,-56(fp)
 40036ac:	e0bff117 	ldw	r2,-60(fp)
 40036b0:	18802e16 	blt	r3,r2,400376c <_Z19vid_bres_scan_edgesiiiiPi+0x170>
    int dPr   = y_delta<<1;
 40036b4:	e0bff117 	ldw	r2,-60(fp)
 40036b8:	1085883a 	add	r2,r2,r2
 40036bc:	e0bff815 	stw	r2,-32(fp)
    int dPru  = dPr - (x_delta<<1);
 40036c0:	e0bff217 	ldw	r2,-56(fp)
 40036c4:	1085883a 	add	r2,r2,r2
 40036c8:	1007883a 	mov	r3,r2
 40036cc:	e0bff817 	ldw	r2,-32(fp)
 40036d0:	10c5c83a 	sub	r2,r2,r3
 40036d4:	e0bff915 	stw	r2,-28(fp)
    int P     = dPr - x_delta;
 40036d8:	e0fff817 	ldw	r3,-32(fp)
 40036dc:	e0bff217 	ldw	r2,-56(fp)
 40036e0:	1885c83a 	sub	r2,r3,r2
 40036e4:	e0bff315 	stw	r2,-52(fp)

    // Process the line, one horizontal point at at time
    for (; x_delta >= 0; x_delta--) {
 40036e8:	e0bff217 	ldw	r2,-56(fp)
 40036ec:	10004d16 	blt	r2,zero,4003824 <_Z19vid_bres_scan_edgesiiiiPi+0x228>
      // map the pixel
      vid_put_pixel_in_span_map(x1, y1, span_array);
 40036f0:	e1800217 	ldw	r6,8(fp)
 40036f4:	e17ffd17 	ldw	r5,-12(fp)
 40036f8:	e13ffc17 	ldw	r4,-16(fp)
 40036fc:	4003fe80 	call	4003fe8 <_Z25vid_put_pixel_in_span_mapiiPi>
      // If we're moving along both axis
      if (P > 0) {
 4003700:	e0bff317 	ldw	r2,-52(fp)
 4003704:	00800d0e 	bge	zero,r2,400373c <_Z19vid_bres_scan_edgesiiiiPi+0x140>
        x1+=x_incr;
 4003708:	e0fffc17 	ldw	r3,-16(fp)
 400370c:	e0bff717 	ldw	r2,-36(fp)
 4003710:	1885883a 	add	r2,r3,r2
 4003714:	e0bffc15 	stw	r2,-16(fp)
        y1+=y_incr;
 4003718:	e0fffd17 	ldw	r3,-12(fp)
 400371c:	e0bff017 	ldw	r2,-64(fp)
 4003720:	1885883a 	add	r2,r3,r2
 4003724:	e0bffd15 	stw	r2,-12(fp)
        P+=dPru;
